(dp0
S'METTS MARK'
p1
(dp2
S'to_messages'
p3
F-0.6071967242018369
sS'deferral_payments'
p4
F-0.32207620401266873
sS'expenses'
p5
F1.2344330776377355
sS'poi'
p6
I00
sS'long_term_incentive'
p7
F-0.4599969278645385
sS'from_poi_to_this_person'
p8
F-0.3808053212248649
sS'deferred_income'
p9
F0.3072033908508732
sS'restricted_stock_deferred'
p10
F0.1968553764342727
sS'shared_receipt_with_poi'
p11
F-0.4639100348458942
sS'loan_advances'
p12
F-0.0855453314017121
sS'from_messages'
p13
F-0.4080891568847429
sS'other'
p14
F-0.2394984614255128
sS'to_poi_ratio'
p15
F0.40455142426467217
sS'director_fees'
p16
F-0.3130011853862872
sS'bonus'
p17
F0.0017461853067062437
sS'total_stock_value'
p18
F-0.3653523749480746
sS'from_this_person_to_poi'
p19
F-0.5134250369696522
sS'from_poi_ratio'
p20
F-0.5821848140034291
sS'restricted_stock'
p21
F-0.1343641260104356
sS'salary'
p22
F1.040341243110438
sS'bonus_to_total'
p23
F0.3815041583499522
sS'total_payments'
p24
F-0.10164248016720358
sS'shared_poi_ratio'
p25
F1.2713510140210427
sS'exercised_stock_options'
p26
F-0.4198765771433258
sS'bonus_to_salary'
p27
F-0.10077828739022043
ssS'ELLIOTT STEVEN'
p28
(dp29
g3
F0.011690601621536241
sg4
F-0.32207620401266873
sg5
F0.8957858706800896
sg6
I00
sg7
F-0.4599969278645385
sg8
F0.010062446994749629
sg9
F-0.43236515296769096
sg10
F0.1968553764342727
sg11
F-0.045240690355402145
sg12
F-0.0855453314017121
sg13
F0.03916436411676937
sg14
F-0.2277057667988183
sg15
F-0.1620850867361246
sg16
F-0.3130011853862872
sg17
F-0.2349325834321757
sg18
F0.6118079228036257
sg19
F-0.021632031015087923
sg20
F-0.4700076461650592
sg21
F0.47201221780195235
sg22
F-0.030269602470931845
sg23
F2.232400106641715
sg24
F-0.19854798239579946
sg25
F-0.23174611762872585
sg26
F0.5738784782950276
sg27
F0.023528071818855557
ssS'CORDES WILLIAM R'
p30
(dp31
g3
F-0.6293714668269313
sg4
F-0.32207620401266873
sg5
F-0.7935146564639368
sg6
I00
sg7
F-0.4599969278645385
sg8
F-0.9146734924516554
sg9
F0.3072033908508732
sg10
F0.1968553764342727
sg11
F-1.2201570221982563
sg12
F-0.0855453314017121
sg13
F-0.419973713029715
sg14
F-0.24132711204938306
sg15
F-0.6692127866820853
sg16
F-0.3130011853862872
sg17
F-0.5662828596666104
sg18
F-0.29269113999205654
sg19
F-0.527365626114821
sg20
F-0.7779105381250855
sg21
F-0.2345057761134452
sg22
F-0.9695259859642622
sg23
F-0.5797562226089557
sg24
F-0.22268310672129152
sg25
F-2.2130819400821253
sg26
F-0.2874157046796524
sg27
F-0.6015179229822268
ssS'HANNON KEVIN P'
p32
(dp33
g3
F-0.4844621022303837
sg4
F-0.32207620401266873
sg5
F-0.061488729136109165
sg6
I01
sg7
F1.9800446318090197
sg8
F-0.4952056436306057
sg9
F-5.445420667643637
sg10
F0.1968553764342727
sg11
F-0.07286927896338403
sg12
F-0.0855453314017121
sg13
F-0.40599188227092425
sg14
F-0.22939884504884991
sg15
F-0.11548101687488348
sg16
F-0.3130011853862872
sg17
F0.8537897527666812
sg18
F0.5656781579057995
sg19
F-0.2346132540662772
sg20
F2.9469946490651875
sg21
F0.0006862823935898956
sg22
F0.36727737489850815
sg23
F8.259487534643439
sg24
F-0.18977543894218324
sg25
F1.8003632419426874
sg26
F0.7054873013021693
sg27
F1.2806216147760405
ssS'MORDAUNT KRISTINA M'
p34
(dp35
g3
F0.011690601621536241
sg4
F-0.32207620401266873
sg5
F-0.04043483851494099
sg6
I00
sg7
F-0.4599969278645385
sg8
F0.010062446994749629
sg9
F0.3072033908508732
sg10
F0.1968553764342727
sg11
F-0.045240690355402145
sg12
F-0.0855453314017121
sg13
F0.03916436411676937
sg14
F-0.2398442235262331
sg15
F-0.1620850867361246
sg16
F-0.3130011853862872
sg17
F-0.2586004603060639
sg18
F-0.4257349495363399
sg19
F-0.021632031015087923
sg20
F-0.4700076461650592
sg21
F-0.32411458080313343
sg22
F0.49804940692792915
sg23
F0.29988674301263396
sg24
F-0.1510361278037951
sg25
F-0.23174611762872585
sg26
F-0.4198765771433258
sg27
F-0.23005880142296423
ssS'MEYER ROCKFORD G'
p36
(dp37
g3
F-0.903719445351356
sg4
F3.074485874974962
sg5
F-0.7935146564639368
sg6
I00
sg7
F-0.4599969278645385
sg8
F-1.1053406964612236
sg9
F0.3072033908508732
sg10
F0.1968553764342727
sg11
F-1.262431698509879
sg12
F-0.0855453314017121
sg13
F-0.4087882484226824
sg14
F-0.24132711204938306
sg15
F-1.0825930548979203
sg16
F-0.3130011853862872
sg17
F-0.5662828596666104
sg18
F-0.3058904072367114
sg19
F-0.527365626114821
sg20
F-0.7779105381250855
sg21
F-0.19618349303825272
sg22
F-0.9695259859642622
sg23
F-0.5797562226089557
sg24
F-0.011998546906762133
sg25
F-2.1300874124106017
sg26
F-0.3195958630354394
sg27
F-0.6015179229822268
ssS'MCMAHON JEFFREY'
p38
(dp39
g3
F0.19109401030156414
sg4
F-0.32207620401266873
sg5
F2.155062294799725
sg6
I00
sg7
F0.5885377810755293
sg8
F0.0005290867942712266
sg9
F0.3072033908508732
sg10
F0.1968553764342727
sg11
F1.3280665221412244
sg12
F-0.0855453314017121
sg13
F-0.3948064176638917
sg14
F0.07117561723780051
sg15
F-0.30477112516628196
sg16
F-0.3130011853862872
sg17
F1.8951763352177617
sg18
F-0.1925212222435074
sg19
F-0.16491030834043344
sg20
F2.296614378285933
sg21
F-0.1475974555195367
sg22
F1.0659461871968707
sg23
F0.49908443661501123
sg24
F0.24466124463564298
sg25
F1.6056914581475938
sg26
F-0.19552441623666242
sg27
F1.5410582259969146
ssS'HORTON STANLEY C'
p40
(dp41
g3
F0.18851555185678573
sg4
F5.433470551173897
sg5
F-0.7935146564639368
sg6
I00
sg7
F-0.4599969278645385
sg8
F-0.26640499881912405
sg9
F0.3072033908508732
sg10
F0.1968553764342727
sg11
F-0.027071712959126082
sg12
F-0.0855453314017121
sg13
F0.3217624087241335
sg14
F-0.24132711204938306
sg15
F-0.4912657742024517
sg16
F-0.3130011853862872
sg17
F-0.5662828596666104
sg18
F0.7044800499680761
sg19
F-0.3182567889372897
sg20
F-0.6985622715892789
sg21
F0.6018652399466249
sg22
F-0.9695259859642622
sg23
F-0.5797562226089557
sg24
F0.13432636532988618
sg25
F-0.5405612825492715
sg26
F0.6389506312208231
sg27
F-0.6015179229822268
ssS'PIPER GREGORY F'
p42
(dp43
g3
F-0.38493360626193646
sg4
F1.7546370057234006
sg5
F0.13244792624866564
sg6
I00
sg7
F-0.4599969278645385
sg8
F0.057729247997141644
sg9
F0.24568541169013317
sg10
F-1.2822125413671142
sg11
F-0.4169381722774245
sg12
F-0.0855453314017121
sg13
F-0.2731644900624123
sg14
F-0.2405094740118135
sg15
F0.4735599354034346
sg16
F-0.3130011853862872
sg17
F-0.1875968296843993
sg18
F-0.318010635346255
sg19
F0.1417826528532791
sg20
F0.4493426509620573
sg21
F-0.22280535808397875
sg22
F0.1134147940655959
sg23
F-0.18815278806972455
sg24
F-0.024605921945849495
sg25
F0.0840803537749465
sg26
F-0.24099496109508298
sg27
F0.01804207662515866
ssS'HUMPHREY GENE E'
p44
(dp45
g3
F-0.9573513810027473
sg4
F5.125917285169832
sg5
F-0.6861161582391014
sg6
I00
sg7
F-0.4599969278645385
sg8
F-0.9146734924516554
sg9
F0.3072033908508732
sg10
F0.1968553764342727
sg11
F-1.14852493178134
sg12
F-0.0855453314017121
sg13
F-0.4164782553400173
sg14
F-0.24132711204938306
sg15
F1.3847704210153449
sg16
F-0.3130011853862872
sg17
F-0.5662828596666104
sg18
F-0.09311412053979769
sg19
F-0.2903756106469522
sg20
F4.8981354614029495
sg21
F-0.4291860379427196
sg22
F-0.25124686348468084
sg23
F-0.5797562226089557
sg24
F0.13072008929653506
sg25
F1.533785490298513
sg26
F0.04399922390316481
sg27
F-0.6015179229822268
ssS'UMANOFF ADAM S'
p46
(dp47
g3
F-0.9661181397149939
sg4
F-0.32207620401266873
sg5
F0.3489008466797766
sg6
I00
sg7
F-0.4599969278645385
sg8
F-0.8765400516497418
sg9
F0.3072033908508732
sg10
F0.1968553764342727
sg11
F-1.240120063789856
sg12
F-0.0855453314017121
sg13
F-0.4157791638020778
sg14
F-0.24132711204938306
sg15
F2.331704511771247
sg16
F-0.3130011853862872
sg17
F0.1804386557045621
sg18
F-0.459170890993029
sg19
F-0.527365626114821
sg20
F-0.7779105381250855
sg21
F-0.4291860379427196
sg22
F0.6161618271171911
sg23
F0.6071798941278937
sg24
F-0.09381869873867212
sg25
F-0.9252311444646643
sg26
F-0.4198765771433258
sg27
F0.23283496107101073
ssS'BLACHMAN JEREMY M'
p48
(dp49
g3
F0.2529770129762464
sg4
F-0.32207620401266873
sg5
F1.0174210140440603
sg6
I00
sg7
F0.7951884293844245
sg8
F-0.6286726864373033
sg9
F0.3072033908508732
sg10
F0.1968553764342727
sg11
F1.4431475854339753
sg12
F-0.0855453314017121
sg13
F-0.4185755299538359
sg14
F-0.24104125402082405
sg15
F-0.7635804034667101
sg16
F-0.3130011853862872
sg17
F0.2384249540455882
sg18
F-0.3061339888158813
sg19
F-0.4994844478244835
sg20
F0.03295317609320518
sg21
F-0.33392531505593
sg22
F0.3961406305392875
sg23
F0.13791080930894847
sg24
F0.006993564528456113
sg25
F1.5781564228983338
sg26
F-0.2643591610387138
sg27
F0.44248645548520316
ssS'SUNDE MARTIN'
p50
(dp51
g3
F0.34167598347662426
sg4
F-0.32207620401266873
sg5
F-0.7935146564639368
sg6
I00
sg7
F0.2589593693703143
sg8
F-0.3998720416258217
sg9
F0.3072033908508732
sg10
F0.1968553764342727
sg11
F1.7238044642805816
sg12
F-0.0855453314017121
sg13
F-0.401797333043287
sg14
F-0.1245435978966743
sg15
F-0.6411335376359171
sg16
F-0.3130011853862872
sg17
F0.09641769280225902
sg18
F-0.34709450039828943
sg19
F-0.34613796722762724
sg20
F1.1638946722397685
sg21
F-0.07698929522534619
sg22
F0.4452625618982381
sg23
F0.19096359949569972
sg24
F-0.04655751430083832
sg25
F1.706407146047626
sg26
F-0.4198765771433258
sg27
F0.228398945486675
ssS'GIBBS DANA R'
p52
(dp53
g3
F-0.9362080217555642
sg4
F0.6052661574385754
sg5
F-0.7935146564639368
sg6
I00
sg7
F0.2370202704797725
sg8
F-1.1053406964612236
sg9
F0.3072033908508732
sg10
F0.1968553764342727
sg11
F-1.2612574019456673
sg12
F-0.0855453314017121
sg13
F-0.419973713029715
sg14
F-0.24132711204938306
sg15
F-1.0825930548979203
sg16
F-0.3130011853862872
sg17
F-0.5662828596666104
sg18
F-0.10345599465790353
sg19
F-0.527365626114821
sg20
F-0.7779105381250855
sg21
F-0.4291860379427196
sg22
F-0.9695259859642622
sg23
F-0.5797562226089557
sg24
F-0.11250656340650467
sg25
F-1.9489823380397249
sg26
F0.030893756314302818
sg27
F-0.6015179229822268
ssS'LOWRY CHARLES P'
p54
(dp55
g3
F0.011690601621536241
sg4
F-0.32207620401266873
sg5
F-0.7935146564639368
sg6
I00
sg7
F-0.4599969278645385
sg8
F0.010062446994749629
sg9
F0.3072033908508732
sg10
F-0.35816797095147856
sg11
F-0.045240690355402145
sg12
F-0.0855453314017121
sg13
F0.03916436411676937
sg14
F-0.24132711204938306
sg15
F-0.1620850867361246
sg16
F-0.3130011853862872
sg17
F-0.5662828596666104
sg18
F-0.399485386269577
sg19
F-0.021632031015087923
sg20
F-0.4700076461650592
sg21
F-0.35174125370237413
sg22
F-0.9695259859642622
sg23
F-0.5797562226089557
sg24
F-0.22268310672129152
sg25
F-0.23174611762872585
sg26
F-0.34424169329682497
sg27
F-0.6015179229822268
ssS'COLWELL WESLEY'
p56
(dp57
g3
F-0.11677392800498004
sg4
F-0.27133618181796615
sg5
F-0.4383727262106466
sg6
I01
sg7
F-0.4599969278645385
sg8
F3.47067219976841
sg9
F0.041328638687715594
sg10
F0.1968553764342727
sg11
F0.04103748776515497
sg12
F-0.0855453314017121
sg13
F-0.400399149967408
sg14
F-0.1344035979846921
sg15
F3.228977251134816
sg16
F-0.3130011853862872
sg17
F0.569775230280023
sg18
F-0.3472032221301375
sg19
F-0.3740191455179647
sg20
F0.7830021117451242
sg21
F-0.0773309500521681
sg22
F0.615903579827049
sg23
F0.789984221922581
sg24
F-0.052794630028642306
sg25
F0.27963559285521916
sg26
F-0.4198765771433258
sg27
F0.6680688257332382
ssS'MULLER MARK S'
p58
(dp59
g3
F-0.9532258474911017
sg4
F1.2269995826025952
sg5
F-0.7935146564639368
sg6
I00
sg7
F2.143820555805585
sg8
F-0.8765400516497418
sg9
F-1.0197526892070903
sg10
F0.1968553764342727
sg11
F-1.1543964146023986
sg12
F-0.0855453314017121
sg13
F-0.4171773468779569
sg14
F-0.2403318636925985
sg15
F1.7040762826041205
sg16
F-0.3130011853862872
sg17
F0.47510372278447016
sg18
F-0.23197005275492513
sg19
F-0.527365626114821
sg20
F-0.7779105381250855
sg21
F-0.24751032790665078
sg22
F0.4132179194278354
sg23
F0.004637335925419351
sg24
F0.14232979940187956
sg25
F1.1324376072710791
sg26
F-0.20522432769816581
sg27
F0.7328605278955771
ssS'JACKSON CHARLENE R'
p60
(dp61
g3
F-0.8903114614385081
sg4
F-0.32207620401266873
sg5
F-0.5745670973075393
sg6
I00
sg7
F-0.4599969278645385
sg8
F-0.6286726864373033
sg9
F0.3072033908508732
sg10
F0.1968553764342727
sg11
F-1.1508735249097635
sg12
F-0.0855453314017121
sg13
F-0.38921368536037537
sg14
F-0.2387680521245991
sg15
F1.9777027291805482
sg16
F-0.3130011853862872
sg17
F-0.32960409092772847
sg18
F-0.3427945398680457
sg19
F-0.2624944323566147
sg20
F1.147890783143355
sg21
F-0.15673294276946984
sg22
F0.6159914937981612
sg23
F0.19184843893505032
sg24
F-0.15985324243989457
sg25
F-0.5560658155392074
sg26
F-0.38227036951772975
sg27
F-0.33703534954244346
ssS'WESTFAHL RICHARD K'
p62
(dp63
g3
F0.011690601621536241
sg4
F-0.32207620401266873
sg5
F0.3219759528516841
sg6
I00
sg7
F-0.07340915127283407
sg8
F0.010062446994749629
sg9
F0.28727136628254774
sg10
F0.1968553764342727
sg11
F-0.045240690355402145
sg12
F-0.0855453314017121
sg13
F0.03916436411676937
sg14
F0.18023991367078102
sg15
F-0.1620850867361246
sg16
F-0.3130011853862872
sg17
F-0.5662828596666104
sg18
F-0.39744484934071816
sg19
F-0.021632031015087923
sg20
F-0.4700076461650592
sg21
F-0.2352137776351042
sg22
F-0.6192767250531943
sg23
F-0.5797562226089557
sg24
F-0.1358052086090757
sg25
F-0.23174611762872585
sg26
F-0.4198765771433258
sg27
F-0.6015179229822268
ssS'WALTERS GARETH W'
p64
(dp65
g3
F0.011690601621536241
sg4
F-0.22352735612455124
sg5
F-0.06695112772423654
sg6
I00
sg7
F-0.4599969278645385
sg8
F0.010062446994749629
sg9
F0.3072033908508732
sg10
F0.1968553764342727
sg11
F-0.045240690355402145
sg12
F-0.0855453314017121
sg13
F0.03916436411676937
sg14
F-0.24132711204938306
sg15
F-0.1620850867361246
sg16
F-0.3130011853862872
sg17
F-0.5662828596666104
sg18
F-0.2939509009439713
sg19
F-0.021632031015087923
sg20
F-0.4700076461650592
sg21
F-0.4291860379427196
sg22
F-0.9695259859642622
sg23
F-0.5797562226089557
sg24
F-0.21271899659121118
sg25
F-0.23174611762872585
sg26
F-0.21050589636611602
sg27
F-0.6015179229822268
ssS'WALLS JR ROBERT H'
p66
(dp67
g3
F-0.6773307938998101
sg4
F-0.32207620401266873
sg5
F0.3018898100118771
sg6
I00
sg7
F0.35598695439416994
sg8
F-0.7812064496449578
sg9
F0.3072033908508732
sg10
F0.1968553764342727
sg11
F-1.0357924616170127
sg12
F-0.0855453314017121
sg13
F-0.3262954469458171
sg14
F-0.24132501015211427
sg15
F-0.2824465685212787
sg16
F-0.3130011853862872
sg17
F0.2384249540455882
sg18
F0.4867718376299849
sg19
F-0.527365626114821
sg20
F-0.7779105381250855
sg21
F0.35311936156196544
sg22
F0.9925545051877541
sg23
F0.22411120656765862
sg24
F-0.017635148595379947
sg25
F-1.1400626423619877
sg26
F0.46337418674674863
sg27
F0.1251403020936385
ssS'KITCHEN LOUISE'
p68
(dp69
g3
F3.259459559587892
sg4
F-0.32207620401266873
sg5
F-0.6693418633621748
sg6
I00
sg7
F-0.4599969278645385
sg8
F3.6804061241789348
sg9
F0.3072033908508732
sg10
F0.1968553764342727
sg11
F3.020227871170345
sg12
F-0.0855453314017121
sg13
F0.77966736607453
sg14
F-0.14261676156259223
sg15
F-0.12809030048321368
sg16
F-0.3130011853862872
sg17
F2.368533872695526
sg18
F-0.3714329344612692
sg19
F2.1771086680479166
sg20
F-0.14066926271510935
sg21
F-0.19431043847881746
sg22
F0.5219455232008683
sg23
F0.9395068968526318
sg24
F0.17300195449638647
sg25
F-0.6074402349134501
sg26
F-0.40340822702259094
sg27
F2.884862865879847
ssS'CHAN RONNIE'
p70
(dp71
g3
F0.011690601621536241
sg4
F-0.32207620401266873
sg5
F-0.7935146564639368
sg6
I00
sg7
F-0.4599969278645385
sg8
F0.010062446994749629
sg9
F0.12489180613258968
sg10
F0.0796289676778376
sg11
F-0.045240690355402145
sg12
F-0.0855453314017121
sg13
F0.03916436411676937
sg14
F-0.24132711204938306
sg15
F-0.1620850867361246
sg16
F3.003168096737836
sg17
F-0.5662828596666104
sg18
F-0.459170890993029
sg19
F-0.021632031015087923
sg20
F-0.4700076461650592
sg21
F-0.41282893517186464
sg22
F-0.9695259859642622
sg23
F-0.5797562226089557
sg24
F-0.22268310672129152
sg25
F-0.23174611762872585
sg26
F-0.4198765771433258
sg27
F-0.6015179229822268
ssS'BELFER ROBERT'
p72
(dp73
g3
F0.011690601621536241
sg4
F-0.32207620401266873
sg5
F1.4107997344142422
sg6
I00
sg7
F-0.6146676504919911
sg8
F0.010062446994749629
sg9
F0.3072033908508732
sg10
F0.0376174207565927
sg11
F-0.045240690355402145
sg12
F-0.0855453314017121
sg13
F0.03916436411676937
sg14
F-0.23787474578535212
sg15
F-0.1620850867361246
sg16
F-0.3130011853862872
sg17
F-0.5662828596666104
sg18
F-0.459170890993029
sg19
F-0.021632031015087923
sg20
F-0.4700076461650592
sg21
F-0.4069668841387976
sg22
F-0.9695259859642622
sg23
F-0.5797562226089557
sg24
F-0.22230864039275572
sg25
F-0.23174611762872585
sg26
F-0.4198765771433258
sg27
F-0.6015179229822268
ssS'SHANKMAN JEFFREY A'
p74
(dp75
g3
F0.6376830129371877
sg4
F-0.32207620401266873
sg5
F3.0555193470968987
sg6
I00
sg7
F0.37661625633602264
sg8
F0.6869310212287162
sg9
F0.3072033908508732
sg10
F0.1968553764342727
sg11
F0.7432668331637768
sg12
F-0.0855453314017121
sg13
F1.4459016017309088
sg14
F-0.2400754322258029
sg15
F-0.16091291387996295
sg16
F-0.3130011853862872
sg17
F1.3271472902444452
sg18
F-0.12690653457745757
sg19
F0.6297032729341854
sg20
F-0.6021881144172052
sg21
F-0.111650127014863
sg22
F0.701443873719235
sg23
F0.5399019149033268
sg24
F0.12370702461946374
sg25
F-0.18912592954821558
sg26
F-0.12687194864961435
sg27
F1.406138844020161
ssS'WODRASKA JOHN'
p76
(dp77
g3
F0.011690601621536241
sg4
F-0.32207620401266873
sg5
F-0.7935146564639368
sg6
I00
sg7
F-0.4599969278645385
sg8
F0.010062446994749629
sg9
F0.3072033908508732
sg10
F0.1968553764342727
sg11
F-0.045240690355402145
sg12
F-0.0855453314017121
sg13
F0.03916436411676937
sg14
F-0.04208511709237196
sg15
F-0.1620850867361246
sg16
F-0.3130011853862872
sg17
F-0.5662828596666104
sg18
F-0.459170890993029
sg19
F-0.021632031015087923
sg20
F-0.4700076461650592
sg21
F-0.4291860379427196
sg22
F-0.9695259859642622
sg23
F-0.5797562226089557
sg24
F-0.2010720108422042
sg25
F-0.23174611762872585
sg26
F-0.4198765771433258
sg27
F-0.6015179229822268
ssS'BERGSIEKER RICHARD P'
p78
(dp79
g3
F-0.8258500003190474
sg4
F-0.32207620401266873
sg5
F0.4790736760259777
sg6
I00
sg7
F-0.18800280343918896
sg8
F-1.0290738148573964
sg9
F-0.5893925954094876
sg10
F0.1968553764342727
sg11
F-1.0146551234612013
sg12
F-0.0855453314017121
sg13
F-0.3871164107465568
sg14
F0.20776005461139432
sg15
F-0.7527522978045542
sg16
F-0.3130011853862872
sg17
F-0.32960409092772847
sg18
F-0.3534560045636931
sg19
F-0.527365626114821
sg20
F-0.7779105381250855
sg21
F-0.09698013391981897
sg22
F0.06303459399510171
sg23
F0.10746754360556475
sg24
F-0.1521386661080868
sg25
F0.12358350881630022
sg26
F-0.4198765771433258
sg27
F-0.195399626951762
ssS'URQUHART JOHN A'
p80
(dp81
g3
F0.011690601621536241
sg4
F-0.32207620401266873
sg5
F4.123848381200853
sg6
I00
sg7
F-0.4599969278645385
sg8
F0.010062446994749629
sg9
F0.23953416744140826
sg10
F0.1968553764342727
sg11
F-0.045240690355402145
sg12
F-0.0855453314017121
sg13
F0.03916436411676937
sg14
F-0.24132711204938306
sg15
F-0.1620850867361246
sg16
F0.9178728721368248
sg17
F-0.5662828596666104
sg18
F-0.459170890993029
sg19
F-0.021632031015087923
sg20
F-0.4700076461650592
sg21
F-0.4291860379427196
sg22
F-0.9695259859642622
sg23
F-0.5797562226089557
sg24
F-0.1966179703993186
sg25
F-0.23174611762872585
sg26
F-0.4198765771433258
sg27
F-0.6015179229822268
ssS'BIBI PHILIPPE A'
p82
(dp83
g3
F-0.19464337303728854
sg4
F-0.32207620401266873
sg5
F0.035716159125055415
sg6
I00
sg7
F0.0979056500919922
sg8
F-0.666806127239217
sg9
F0.3072033908508732
sg10
F0.1968553764342727
sg11
F0.2805939868643504
sg12
F-0.0855453314017121
sg13
F-0.400399149967408
sg14
F0.20604911023457775
sg15
F-0.6305757510342829
sg16
F-0.3130011853862872
sg17
F0.38043221528891735
sg18
F-0.1635029430149624
sg19
F-0.415840912953471
sg20
F0.35729866178052155
sg21
F-0.23866459216914038
sg22
F0.2042628939636819
sg23
F0.25105034436378937
sg24
F0.010727740476759192
sg25
F1.1022768710294624
sg26
F-0.12202829235438672
sg27
F0.8275013851818368
ssS'PIRO JIM'
p84
(dp85
g3
F-0.9934497992296453
sg4
F-0.32207620401266873
sg5
F-0.7935146564639368
sg6
I00
sg7
F-0.4599969278645385
sg8
F-1.1053406964612236
sg9
F0.3072033908508732
sg10
F0.1968553764342727
sg11
F-1.284743333229902
sg12
F-0.0855453314017121
sg13
F-0.4171773468779569
sg14
F-0.24132711204938306
sg15
F-1.0825930548979203
sg16
F-0.3130011853862872
sg17
F-0.5662828596666104
sg18
F-0.45158538538338333
sg19
F-0.5134250369696522
sg20
F-0.4231576631545833
sg21
F-0.40534881091029434
sg22
F-0.9695259859642622
sg23
F-0.5797562226089557
sg24
F-0.22268310672129152
sg25
F-2.3192515506595397
sg26
F-0.4198765771433258
sg27
F-0.6015179229822268
ssS'RIEKER PAULA H'
p86
(dp87
g3
F-0.3385213542559248
sg4
F0.0724463053938634
sg5
F-0.07800495793800614
sg6
I01
sg7
F-0.4599969278645385
sg8
F-0.4380054824277353
sg9
F0.12264760781082266
sg10
F0.1968553764342727
sg11
F0.1889988548558345
sg12
F-0.0855453314017121
sg13
F-0.3710373053739474
sg14
F-0.23927776221228708
sg15
F-0.2502294726621199
sg16
F-0.3130011853862872
sg17
F0.09641769280225902
sg18
F-0.15146481745218313
sg19
F0.1417826528532791
sg20
F2.544652973793764
sg21
F-0.28625086099107955
sg22
F0.39973960873169384
sg23
F0.503682588801468
sg24
F-0.09739362675365267
sg25
F1.6110322615126689
sg26
F-0.08758379173908797
sg27
F0.2559905733503867
ssS'WHALEY DAVID A'
p88
(dp89
g3
F0.011690601621536241
sg4
F-0.32207620401266873
sg5
F-0.7935146564639368
sg6
I00
sg7
F-0.4599969278645385
sg8
F0.010062446994749629
sg9
F0.3072033908508732
sg10
F0.1968553764342727
sg11
F-0.045240690355402145
sg12
F-0.0855453314017121
sg13
F0.03916436411676937
sg14
F-0.24132711204938306
sg15
F-0.1620850867361246
sg16
F-0.3130011853862872
sg17
F-0.5662828596666104
sg18
F-0.44334081440811013
sg19
F-0.021632031015087923
sg20
F-0.4700076461650592
sg21
F-0.4291860379427196
sg22
F-0.9695259859642622
sg23
F-0.5797562226089557
sg24
F-0.22268310672129152
sg25
F-0.23174611762872585
sg26
F-0.399816329528278
sg27
F-0.6015179229822268
ssS'BECK SALLY W'
p90
(dp91
g3
F2.7489247875217635
sg4
F-0.32207620401266873
sg5
F0.00588802195287947
sg6
I00
sg7
F-0.4599969278645385
sg8
F1.6402670412765565
sg9
F0.3072033908508732
sg10
F0.1968553764342727
sg11
F1.8107024100322506
sg12
F-0.0855453314017121
sg13
F2.607791737786419
sg14
F-0.24073227512230802
sg15
F-0.4608781733116824
sg16
F-0.3130011853862872
sg17
F0.09641769280225902
sg18
F-0.4389616377487618
sg19
F4.853701783920317
sg20
F-0.2734312022241364
sg21
F-0.36567905732341777
sg22
F0.3015451976225432
sg23
F0.6490611541088771
sg24
F-0.11221633775279016
sg25
F-0.9629899339931837
sg26
F-0.4198765771433258
sg27
F0.32223591264040596
ssS'HAUG DAVID L'
p92
(dp93
g3
F-0.7278685794174673
sg4
F-0.32207620401266873
sg5
F-0.7832995409940136
sg6
I00
sg7
F-0.4599969278645385
sg8
F-1.0290738148573964
sg9
F0.3072033908508732
sg10
F0.1968553764342727
sg11
F-0.7351725411788067
sg12
F-0.0855453314017121
sg13
F-0.41508007226413823
sg14
F-0.24132711204938306
sg15
F-0.8621235785161416
sg16
F-0.3130011853862872
sg17
F-0.5662828596666104
sg18
F-0.10361250263767299
sg19
F-0.42978150209863974
sg20
F1.3132643038062957
sg21
F0.6881456816110052
sg22
F-0.9695259859642622
sg23
F-0.5797562226089557
sg24
F-0.222628960144106
sg25
F1.061141311493731
sg26
F-0.4198765771433258
sg27
F-0.6015179229822268
ssS'ECHOLS JOHN B'
p94
(dp95
g3
F0.011690601621536241
sg4
F-0.32207620401266873
sg5
F-0.3305011068482569
sg6
I00
sg7
F2.9122382866627072
sg8
F0.010062446994749629
sg9
F0.3072033908508732
sg10
F0.1968553764342727
sg11
F-0.045240690355402145
sg12
F-0.0855453314017121
sg13
F0.03916436411676937
sg14
F-0.18481234923408174
sg15
F-0.1620850867361246
sg16
F-0.3130011853862872
sg17
F-0.3769398446755049
sg18
F-0.29738060654982074
sg19
F-0.021632031015087923
sg20
F-0.4700076461650592
sg21
F-0.22383888913089875
sg22
F0.03184161811984863
sg23
F-0.4533855695309885
sg24
F0.08422242859341442
sg25
F-0.23174611762872585
sg26
F-0.29765980608739756
sg27
F-0.26650269654907577
ssS'MENDELSOHN JOHN'
p96
(dp97
g3
F0.011690601621536241
sg4
F-0.32207620401266873
sg5
F-0.7903318415385713
sg6
I00
sg7
F-0.4599969278645385
sg8
F0.010062446994749629
sg9
F0.11572676594682077
sg10
F0.1968553764342727
sg11
F-0.045240690355402145
sg12
F-0.0855453314017121
sg13
F0.03916436411676937
sg14
F-0.24132711204938306
sg15
F-0.1620850867361246
sg16
F3.169876234240148
sg17
F-0.5662828596666104
sg18
F-0.459170890993029
sg19
F-0.021632031015087923
sg20
F-0.4700076461650592
sg21
F-0.4291860379427196
sg22
F-0.9695259859642622
sg23
F-0.5797562226089557
sg24
F-0.22266623578776845
sg25
F-0.23174611762872585
sg26
F-0.4198765771433258
sg27
F-0.6015179229822268
ssS'HICKERSON GARY J'
p98
(dp99
g3
F-0.34264688776757024
sg4
F-0.32207620401266873
sg5
F1.332283131086474
sg6
I00
sg7
F-0.3555406212065858
sg8
F-0.34267188042295127
sg9
F0.3072033908508732
sg10
F0.1968553764342727
sg11
F-0.23139931513196924
sg12
F-0.0855453314017121
sg13
F-0.4094873399606219
sg14
F-0.2392924754931688
sg15
F-0.12555510060429012
sg16
F-0.3130011853862872
sg17
F1.0431327677577868
sg18
F-0.3884382641032888
sg19
F-0.5134250369696522
sg20
F-0.5676866122166397
sg21
F-0.2069108499016526
sg22
F0.19416927115536065
sg23
F0.8094102992349813
sg24
F0.01462663601250039
sg25
F0.4459842157431152
sg26
F-0.4198765771433258
sg27
F1.8488863704675047
ssS'CLINE KENNETH W'
p100
(dp101
g3
F0.011690601621536241
sg4
F-0.32207620401266873
sg5
F-0.7935146564639368
sg6
I00
sg7
F-0.4599969278645385
sg8
F0.010062446994749629
sg9
F0.3072033908508732
sg10
F-1.509782009062062
sg11
F-0.045240690355402145
sg12
F-0.0855453314017121
sg13
F0.03916436411676937
sg14
F-0.24132711204938306
sg15
F-0.1620850867361246
sg16
F-0.3130011853862872
sg17
F-0.5662828596666104
sg18
F-0.42878044088037826
sg19
F-0.021632031015087923
sg20
F-0.4700076461650592
sg21
F-0.09555052515330895
sg22
F-0.9695259859642622
sg23
F-0.5797562226089557
sg24
F-0.22268310672129152
sg25
F-0.23174611762872585
sg26
F-0.4198765771433258
sg27
F-0.6015179229822268
ssS'RICE KENNETH D'
p102
(dp103
g3
F-0.5566589386841797
sg4
F-0.32207620401266873
sg5
F0.2161688620895315
sg6
I01
sg7
F1.9800446318090197
sg8
F-0.30453843962103766
sg9
F-6.1603436321950324
sg10
F0.1968553764342727
sg11
F-0.27367399144359195
sg12
F-0.0855453314017121
sg13
F-0.4157791638020778
sg14
F-0.057580303758086565
sg15
F0.38310264084900947
sg16
F-0.3130011853862872
sg17
F1.0904685215055632
sg18
F3.1556725903226437
sg19
F-0.471603269534146
sg20
F0.48343301732558885
sg21
F0.9557576589062634
sg22
F1.3417103360831137
sg23
F5.31474728011947
sg24
F-0.16511104607380175
sg25
F1.6435385755658336
sg26
F3.6024501701123826
sg27
F0.6685348946236346
ssS'HAYES ROBERT E'
p104
(dp105
g3
F-0.7634513059554096
sg4
F-0.3074459498767749
sg5
F-0.7935146564639368
sg6
I00
sg7
F-0.4599969278645385
sg8
F-0.8002731700459146
sg9
F0.3072033908508732
sg10
F0.1968553764342727
sg11
F-1.2295513947119503
sg12
F-0.0855453314017121
sg13
F-0.419973713029715
sg14
F-0.24132711204938306
sg15
F-0.07998186468554591
sg16
F-0.3130011853862872
sg17
F-0.5662828596666104
sg18
F-0.4348900249267063
sg19
F-0.527365626114821
sg20
F-0.7779105381250855
sg21
F-0.3528841344505041
sg22
F-0.9695259859642622
sg23
F-0.5797562226089557
sg24
F-0.22177561008766186
sg25
F-2.110870738048805
sg26
F-0.4198765771433258
sg27
F-0.6015179229822268
ssS'KOPPER MICHAEL J'
p106
(dp107
g3
F0.2231405652580961
sg4
F-0.32207620401266873
sg5
F1.7470168191653588
sg6
I01
sg7
F0.44942316068774907
sg8
F0.7591121770323385
sg9
F0.3072033908508732
sg10
F0.1968553764342727
sg11
F0.8055045510669993
sg12
F-0.0855453314017121
sg13
F-0.21838567455386432
sg14
F0.7124108755733337
sg15
F0.19506958284213066
sg16
F-0.3130011853862872
sg17
F0.1910892002978118
sg18
F-0.3012145709845624
sg19
F0.4026708211414371
sg20
F0.4828330917344114
sg21
F0.06718702603081066
sg22
F0.262945469681086
sg23
F-0.0667060785585106
sg24
F0.07969554675511502
sg25
F0.6909983238703308
sg26
F-0.4198765771433258
sg27
F0.48726476026263377
ssS'LEFF DANIEL P'
p108
(dp109
g3
F0.4319220290438692
sg4
F-0.32207620401266873
sg5
F-0.7935146564639368
sg6
I00
sg7
F1.6335641053316086
sg8
F0.17212957040288246
sg9
F0.3072033908508732
sg10
F0.1968553764342727
sg11
F1.8494541966512381
sg12
F-0.0855453314017121
sg13
F-0.3843200445947986
sg14
F-0.23808703740950257
sg15
F-0.33276636569054385
sg16
F-0.3130011853862872
sg17
F0.38043221528891735
sg18
F-0.40135786954802777
sg19
F-0.33219737808245847
sg20
F0.48343301732558885
sg21
F-0.24751032790665078
sg22
F0.5346051350410274
sg23
F0.05876034237250383
sg24
F0.08101968705108817
sg25
F1.6090883352159933
sg26
F-0.4198765771433258
sg27
F0.513655448342096
ssS'CHRISTODOULOU DIOMEDES'
p110
(dp111
g3
F0.011690601621536241
sg4
F-0.32207620401266873
sg5
F-0.7935146564639368
sg6
I00
sg7
F-0.4599969278645385
sg8
F0.010062446994749629
sg9
F0.3072033908508732
sg10
F0.1968553764342727
sg11
F-0.045240690355402145
sg12
F-0.0855453314017121
sg13
F0.03916436411676937
sg14
F-0.24132711204938306
sg15
F-0.1620850867361246
sg16
F-0.3130011853862872
sg17
F-0.5662828596666104
sg18
F0.5154576977580564
sg19
F-0.021632031015087923
sg20
F-0.4700076461650592
sg21
F0.04990171058885543
sg22
F-0.9695259859642622
sg23
F-0.5797562226089557
sg24
F-0.22268310672129152
sg25
F-0.23174611762872585
sg26
F0.6220002726786971
sg27
F-0.6015179229822268
ssS'BERBERIAN DAVID'
p112
(dp113
g3
F0.011690601621536241
sg4
F-0.32207620401266873
sg5
F-0.5377711761095632
sg6
I00
sg7
F-0.4599969278645385
sg8
F0.010062446994749629
sg9
F0.3072033908508732
sg10
F0.1968553764342727
sg11
F-0.045240690355402145
sg12
F-0.0855453314017121
sg13
F0.03916436411676937
sg14
F-0.24132711204938306
sg15
F-0.1620850867361246
sg16
F-0.3130011853862872
sg17
F-0.5662828596666104
sg18
F-0.05930326550042316
sg19
F-0.021632031015087923
sg20
F-0.4700076461650592
sg21
F0.00882754401915775
sg22
F0.22051049474985832
sg23
F-0.5797562226089557
sg24
F-0.19663871708784023
sg25
F-0.23174611762872585
sg26
F-0.0897869685117368
sg27
F-0.6015179229822268
ssS'DETMERING TIMOTHY J'
p114
(dp115
g3
F0.011690601621536241
sg4
F1.2865111414121226
sg5
F0.33025557275888506
sg6
I00
sg7
F0.16722227755164742
sg8
F0.010062446994749629
sg9
F-1.123548707146645
sg10
F-0.9409847392179915
sg11
F-0.045240690355402145
sg12
F-0.0855453314017121
sg13
F0.03916436411676937
sg14
F-0.240165813808362
sg15
F-0.1620850867361246
sg16
F-0.3130011853862872
sg17
F-0.16392895281051112
sg18
F-0.1339894828012452
sg19
F-0.021632031015087923
sg20
F-0.4700076461650592
sg21
F-0.27041833443662816
sg22
F0.18709219648082728
sg23
F0.020443454065175674
sg24
F-0.08536932485625803
sg25
F-0.23174611762872585
sg26
F-0.0077990023353988955
sg27
F0.014831512292276396
ssS'WAKEHAM JOHN'
p116
(dp117
g3
F0.011690601621536241
sg4
F-0.32207620401266873
sg5
F1.4381762438736365
sg6
I00
sg7
F-0.4599969278645385
sg8
F0.010062446994749629
sg9
F0.3072033908508732
sg10
F0.1968553764342727
sg11
F-0.045240690355402145
sg12
F-0.0855453314017121
sg13
F0.03916436411676937
sg14
F-0.24132711204938306
sg15
F-0.1620850867361246
sg16
F3.356122055195208
sg17
F-0.5662828596666104
sg18
F-0.459170890993029
sg19
F-0.021632031015087923
sg20
F-0.4700076461650592
sg21
F-0.4291860379427196
sg22
F-0.9695259859642622
sg23
F-0.5797562226089557
sg24
F-0.19839454809497473
sg25
F-0.23174611762872585
sg26
F-0.4198765771433258
sg27
F-0.6015179229822268
ssS'POWERS WILLIAM'
p118
(dp119
g3
F-0.6866132443010124
sg4
F-0.32207620401266873
sg5
F-0.7935146564639368
sg6
I00
sg7
F-0.4599969278645385
sg8
F-1.1053406964612236
sg9
F0.27490612881886434
sg10
F0.1968553764342727
sg11
F-1.2741746641519964
sg12
F-0.0855453314017121
sg13
F-0.4101864314985615
sg14
F-0.24132711204938306
sg15
F-1.0825930548979203
sg16
F0.274472114309738
sg17
F-0.5662828596666104
sg18
F-0.459170890993029
sg19
F-0.527365626114821
sg20
F-0.7779105381250855
sg21
F-0.4291860379427196
sg22
F-0.9695259859642622
sg23
F-0.5797562226089557
sg24
F-0.22268310672129152
sg25
F-2.465600283650908
sg26
F-0.4198765771433258
sg27
F-0.6015179229822268
ssS'GOLD JOSEPH'
p120
(dp121
g3
F0.011690601621536241
sg4
F-0.32207620401266873
sg5
F-0.7935146564639368
sg6
I00
sg7
F-5.1468250287919346e-05
sg8
F0.010062446994749629
sg9
F0.3072033908508732
sg10
F0.1968553764342727
sg11
F-0.045240690355402145
sg12
F-0.0855453314017121
sg13
F0.03916436411676937
sg14
F0.6197024927376481
sg15
F-0.1620850867361246
sg16
F-0.3130011853862872
sg17
F0.1437534465500354
sg18
F-0.31844023050793774
sg19
F-0.021632031015087923
sg20
F-0.4700076461650592
sg21
F-0.2069108499016526
sg22
F0.5298467913545787
sg23
F0.014506156641071235
sg24
F0.022056344351915183
sg25
F-0.23174611762872585
sg26
F-0.3311734126983148
sg27
F0.23751640448739728
ssS'BANNANTINE JAMES M'
p122
(dp123
g3
F-0.731478421240157
sg4
F-0.32207620401266873
sg5
F0.41726685105637884
sg6
I00
sg7
F-0.4599969278645385
sg8
F-0.3617386008239081
sg9
F0.29778366368450904
sg10
F-1.8263366496392819
sg11
F-0.7422183205640771
sg12
F-0.0855453314017121
sg13
F-0.4080891568847429
sg14
F0.6672421542151034
sg15
F1.0935692192644508
sg16
F-0.3130011853862872
sg17
F-0.5662828596666104
sg18
F0.3816565242911797
sg19
F-0.527365626114821
sg20
F-0.7779105381250855
sg21
F0.4564719623382926
sg22
F-0.9669050507004793
sg23
F-0.5797562226089557
sg24
F-0.11824325076832017
sg25
F1.0592333269568257
sg26
F0.4023332661411715
sg27
F-0.6015179229822268
ssS'DUNCAN JOHN H'
p124
(dp125
g3
F0.011690601621536241
sg4
F-0.32207620401266873
sg5
F-0.7935146564639368
sg6
I00
sg7
F-0.4599969278645385
sg8
F0.010062446994749629
sg9
F0.2610644450908606
sg10
F0.1968553764342727
sg11
F-0.045240690355402145
sg12
F-0.0855453314017121
sg13
F0.03916436411676937
sg14
F-0.24132711204938306
sg15
F-0.1620850867361246
sg16
F3.1276452964677137
sg17
F-0.5662828596666104
sg18
F-0.3995583484937524
sg19
F-0.021632031015087923
sg20
F-0.4700076461650592
sg21
F-0.4291860379427196
sg22
F-0.9695259859642622
sg23
F-0.5797562226089557
sg24
F-0.21384957712284527
sg25
F-0.23174611762872585
sg26
F-0.3443341527537107
sg27
F-0.6015179229822268
ssS'SHAPIRO RICHARD S'
p126
(dp127
g3
F6.788853478800603
sg4
F-0.32207620401266873
sg5
F2.169234423420103
sg6
I00
sg7
F-0.4599969278645385
sg8
F0.3055966132095801
sg9
F0.3072033908508732
sg10
F0.1968553764342727
sg11
F4.02777432326402
sg12
F-0.0855453314017121
sg13
F0.4210334071115477
sg14
F-0.2405861932621253
sg15
F-0.9283197243556373
sg16
F-0.3130011853862872
sg17
F0.04908193905448263
sg18
F-0.3008988289639004
sg19
F0.37877266832114787
sg20
F-0.47425375625733046
sg21
F-0.2381193554101119
sg22
F0.5089452447226495
sg23
F0.46582271288789695
sg24
F-0.10213025533304974
sg25
F-1.2347937374053013
sg26
F-0.2963594806706682
sg27
F0.13592526150563625
ssS'SHERRIFF JOHN R'
p128
(dp129
g3
F0.6201494955126944
sg4
F-0.32207620401266873
sg5
F-0.7935146564639368
sg6
I00
sg7
F0.37661625633602264
sg8
F-0.5714725252344329
sg9
F0.3072033908508732
sg10
F0.1968553764342727
sg11
F1.1812794516147567
sg12
F-0.0855453314017121
sg13
F-0.3640463899945521
sg14
F1.7052252353206163
sg15
F-0.8051211158432249
sg16
F-0.3130011853862872
sg17
F0.8537897527666812
sg18
F0.04258182576412398
sg19
F-0.2067320757759397
sg20
F0.6411009617569232
sg21
F0.2225905884987558
sg22
F1.3864585473792317
sg23
F0.008825598979131943
sg24
F0.27151988479717076
sg25
F0.3496544139438931
sg26
F-0.046877245797655016
sg27
F0.4664222201210478
ssS'SHELBY REX'
p130
(dp131
g3
F-0.9073292871740458
sg4
F-0.32207620401266873
sg5
F-0.30138265138241244
sg6
I01
sg7
F-0.4599969278645385
sg8
F-0.857473331248785
sg9
F0.2995129513715943
sg10
F0.1968553764342727
sg11
F-1.1814052355792688
sg12
F-0.0855453314017121
sg13
F-0.4010982415053475
sg14
F1.4121555972322748
sg15
F0.742159311288601
sg16
F-0.3130011853862872
sg17
F-0.3769398446755049
sg18
F-0.05930326550042316
sg19
F-0.33219737808245847
sg20
F1.2596444360644654
sg21
F0.00882754401915775
sg22
F0.1944769700542534
sg23
F-0.4099706599756285
sg24
F0.005745343433336793
sg25
F-0.7713003891308979
sg26
F-0.0897869685117368
sg27
F-0.31331127119454527
ssS'LEMAISTRE CHARLES'
p132
(dp133
g3
F0.011690601621536241
sg4
F-0.32207620401266873
sg5
F-0.7935146564639368
sg6
I00
sg7
F-0.4599969278645385
sg8
F0.010062446994749629
sg9
F0.2610644450908606
sg10
F0.1968553764342727
sg11
F-0.045240690355402145
sg12
F-0.0855453314017121
sg13
F0.03916436411676937
sg14
F-0.24132711204938306
sg15
F-0.1620850867361246
sg16
F3.4633443248654427
sg17
F-0.5662828596666104
sg18
F-0.3929632048544511
sg19
F-0.021632031015087923
sg20
F-0.4700076461650592
sg21
F-0.4291860379427196
sg22
F-0.9695259859642622
sg23
F-0.5797562226089557
sg24
F-0.21270964918209703
sg25
F-0.23174611762872585
sg26
F-0.33597663068162975
sg27
F-0.6015179229822268
ssS'DEFFNER JOSEPH M'
p134
(dp135
g3
F-0.6551560512747157
sg4
F-0.32207620401266873
sg5
F0.10167354680138102
sg6
I00
sg7
F0.04603889811003317
sg8
F1.087332149648809
sg9
F0.3072033908508732
sg10
F0.1968553764342727
sg11
F-0.6400545194776556
sg12
F-0.0855453314017121
sg13
F-0.3766300376774637
sg14
F-0.21447222159435017
sg15
F4.00418430720898
sg16
F-0.3130011853862872
sg17
F0.0017461853067062437
sg18
F-0.4336403664366004
sg19
F-0.471603269534146
sg20
F-0.4710972408532998
sg21
F-0.3577141661836724
sg22
F0.1630312415120527
sg23
F0.26473396977316216
sg24
F-0.0849058301555498
sg25
F0.8466249009083984
sg26
F-0.4163452355130831
sg27
F0.2871084170021942
ssS'KISHKILL JOSEPH G'
p136
(dp137
g3
F0.011690601621536241
sg4
F-0.32207620401266873
sg5
F1.7083284134171652
sg6
I00
sg7
F-0.4599969278645385
sg8
F0.010062446994749629
sg9
F0.2130024280715706
sg10
F0.1968553764342727
sg11
F-0.045240690355402145
sg12
F-0.0855453314017121
sg13
F0.03916436411676937
sg14
F0.2477391916129169
sg15
F-0.1620850867361246
sg16
F-0.3130011853862872
sg17
F-0.5662828596666104
sg18
F-0.2933067487362521
sg19
F-0.021632031015087923
sg20
F-0.4700076461650592
sg21
F0.09203712356753095
sg22
F-0.012109872813064764
sg23
F-0.5797562226089557
sg24
F-0.1423300421491245
sg25
F-0.23174611762872585
sg26
F-0.4198765771433258
sg27
F-0.6015179229822268
ssS'MCCARTY DANNY J'
p138
(dp139
g3
F-0.28437372691557783
sg4
F-0.32207620401266873
sg5
F-0.7935146564639368
sg6
I00
sg7
F-0.4599969278645385
sg8
F-0.6286726864373033
sg9
F0.3072033908508732
sg10
F0.1968553764342727
sg11
F-0.6917235683029722
sg12
F-0.0855453314017121
sg13
F-0.278058130827989
sg14
F-0.24132711204938306
sg15
F-0.5316116785599965
sg16
F-0.3130011853862872
sg17
F-0.5662828596666104
sg18
F-0.3374713442774446
sg19
F-0.4994844478244835
sg20
F-0.725110110222499
sg21
F-0.3815377874929056
sg22
F-0.9695259859642622
sg23
F-0.5797562226089557
sg24
F-0.22268310672129152
sg25
F-0.9904823841460654
sg26
F-0.28487052952032504
sg27
F-0.6015179229822268
ssS'MCCONNELL MICHAEL S'
p140
(dp141
g3
F0.6933777153444017
sg4
F-0.32207620401266873
sg5
F0.9562593542620355
sg6
I00
sg7
F0.37661625633602264
sg8
F0.6487975804268026
sg9
F0.3072033908508732
sg10
F0.1968553764342727
sg11
F1.2822689561369667
sg12
F-0.0855453314017121
sg13
F1.4885461855452204
sg14
F-0.24075959978680264
sg15
F-0.20978823986774273
sg16
F-0.3130011853862872
sg17
F0.47510372278447016
sg18
F0.038139468629335926
sg19
F2.1771086680479166
sg20
F-0.3763230385231749
sg21
F0.3157368812183702
sg22
F1.0362202757145529
sg23
F0.3107458902930291
sg24
F0.016857247006956542
sg25
F0.3395018373452072
sg26
F-0.0900686142419426
sg27
F0.3183908938456181
ssS'DELAINEY DAVID W'
p142
(dp143
g3
F0.57167447675086
sg4
F-0.32207620401266873
sg5
F1.0597008393364162
sg6
I01
sg7
F1.4941069458800584
sg8
F0.15306285000192565
sg9
F0.3072033908508732
sg10
F0.1968553764342727
sg11
F1.1742336722294864
sg12
F-0.0855453314017121
sg13
F1.717149118451449
sg14
F-0.23958148636763105
sg15
F-0.4086749609918335
sg16
F-0.3130011853862872
sg17
F2.2738623651999728
sg18
F0.12039948551262827
sg19
F7.96245316329295
sg20
F0.34842117048116183
sg21
F0.23756897798615234
sg22
F1.036907103613867
sg23
F0.4951139764088309
sg24
F0.3185522856972964
sg25
F0.4291510927098001
sg26
F0.0456949913047286
sg27
F1.906465495709273
ssS'SULLIVAN-SHAKLOVITZ COLLEEN'
p144
(dp145
g3
F0.011690601621536241
sg4
F0.012379748876882143
sg5
F-0.7935146564639368
sg6
I00
sg7
F0.37661625633602264
sg8
F0.010062446994749629
sg9
F0.3072033908508732
sg10
F0.1968553764342727
sg11
F-0.045240690355402145
sg12
F-0.0855453314017121
sg13
F0.03916436411676937
sg14
F-0.24115685837060893
sg15
F-0.1620850867361246
sg16
F-0.3130011853862872
sg17
F-0.47161135217105765
sg18
F-0.24070515437580772
sg19
F-0.021632031015087923
sg20
F-0.4700076461650592
sg21
F-0.4291860379427196
sg22
F-0.07511671698455094
sg23
F-0.4095312266227981
sg24
F-0.1087637240058519
sg25
F-0.23174611762872585
sg26
F-0.14303162642966913
sg27
F-0.41397883642527045
ssS'WROBEL BRUCE'
p146
(dp147
g3
F0.011690601621536241
sg4
F-0.32207620401266873
sg5
F-0.7935146564639368
sg6
I00
sg7
F-0.4599969278645385
sg8
F0.010062446994749629
sg9
F0.3072033908508732
sg10
F0.1968553764342727
sg11
F-0.045240690355402145
sg12
F-0.0855453314017121
sg13
F0.03916436411676937
sg14
F-0.24132711204938306
sg15
F-0.1620850867361246
sg16
F-0.3130011853862872
sg17
F-0.5662828596666104
sg18
F-0.43686048604904953
sg19
F-0.021632031015087923
sg20
F-0.4700076461650592
sg21
F-0.4291860379427196
sg22
F-0.9695259859642622
sg23
F-0.5797562226089557
sg24
F-0.22268310672129152
sg25
F-0.23174611762872585
sg26
F-0.39160430409604363
sg27
F-0.6015179229822268
ssS'LINDHOLM TOD A'
p148
(dp149
g3
F0.011690601621536241
sg4
F0.05296074018812522
sg5
F0.4479337029724011
sg6
I00
sg7
F-0.1959249624030341
sg8
F0.010062446994749629
sg9
F0.3072033908508732
sg10
F0.1968553764342727
sg11
F-0.045240690355402145
sg12
F-0.0855453314017121
sg13
F0.03916436411676937
sg14
F-0.23856311714088949
sg15
F-0.1620850867361246
sg16
F-0.3130011853862872
sg17
F-0.3769398446755049
sg18
F0.03219489145921976
sg19
F-0.021632031015087923
sg20
F-0.4700076461650592
sg21
F-0.16974656504480345
sg22
F0.3297161307408139
sg23
F-0.1913157442178755
sg24
F-0.12283807231188817
sg25
F-0.23174611762872585
sg26
F0.09817294695710069
sg27
F-0.3433109342218619
ssS'MEYER JEROME J'
p150
(dp151
g3
F0.011690601621536241
sg4
F-0.32207620401266873
sg5
F-0.7472563125148738
sg6
I00
sg7
F-0.4599969278645385
sg8
F0.010062446994749629
sg9
F0.23643363028633543
sg10
F0.1968553764342727
sg11
F-0.045240690355402145
sg12
F-0.0855453314017121
sg13
F0.03916436411676937
sg14
F-0.24132711204938306
sg15
F-0.1620850867361246
sg16
F0.9742703089076432
sg17
F-0.5662828596666104
sg18
F-0.459170890993029
sg19
F-0.021632031015087923
sg20
F-0.4700076461650592
sg21
F-0.4291860379427196
sg22
F-0.9695259859642622
sg23
F-0.5797562226089557
sg24
F-0.22243790822123657
sg25
F-0.23174611762872585
sg26
F-0.4198765771433258
sg27
F-0.6015179229822268
ssS'LAY KENNETH L'
p152
(dp153
g3
F1.1801906697185687
sg4
F0.05082160995144888
sg5
F1.3534230437326522
sg6
I01
sg7
F4.972340647343552
sg8
F1.2398659128564637
sg9
F-0.24646395826927842
sg10
F0.1968553764342727
sg11
F1.5429627933919734
sg12
F11.747198724880452
sg13
F-0.4031955161191661
sg14
F10.646215933339718
sg15
F-0.17348538897752597
sg16
F-0.3130011853862872
sg17
F6.060722665022084
sg18
F7.415951131650659
sg19
F-0.304316199792121
sg20
F1.7447765727762634
sg21
F7.009462940181521
sg22
F4.922473852599637
sg23
F-0.46476877785602944
sg24
F11.58238705115909
sg25
F-0.07001778737923688
sg26
F6.559976015258733
sg27
F1.3912806400840905
ssS'BUTTS ROBERT H'
p154
(dp155
g3
F0.011690601621536241
sg4
F-0.32207620401266873
sg5
F-0.5911478426281938
sg6
I00
sg7
F-0.1959249624030341
sg8
F0.010062446994749629
sg9
F0.1687865535708353
sg10
F0.1968553764342727
sg11
F-0.045240690355402145
sg12
F-0.0855453314017121
sg13
F0.03916436411676937
sg14
F-0.08299539458398024
sg15
F-0.1620850867361246
sg16
F-0.3130011853862872
sg17
F0.1437534465500354
sg18
F-0.392202954514198
sg19
F-0.021632031015087923
sg20
F-0.4700076461650592
sg21
F-0.21874127817495392
sg22
F0.46740589337212746
sg23
F0.42361224530390235
sg24
F-0.07773192164603891
sg25
F-0.23174611762872585
sg26
F-0.4198765771433258
sg27
F0.273976070807488
ssS'OLSON CINDY K'
p156
(dp157
g3
F-0.41278095746554344
sg4
F-0.17925434364021298
sg5
F0.5783430928873794
sg6
I00
sg7
F-0.309098661886536
sg8
F-0.7240062884420874
sg9
F0.3072033908508732
sg10
F0.1968553764342727
sg11
F-0.2830683639572859
sg12
F-0.0855453314017121
sg13
F-0.39201005151213353
sg14
F-0.2403055899767383
sg15
F-0.5491090601058629
sg16
F-0.3130011853862872
sg17
F0.1437534465500354
sg18
F-0.04115940444819544
sg19
F-0.3182567889372897
sg20
F0.8594104232772322
sg21
F0.059475604474975984
sg22
F0.8386336256398478
sg23
F0.3856696221828829
sg24
F-0.0720351317621496
sg25
F0.6265964617468927
sg26
F-0.08721883089388621
sg27
F0.09423107050840772
ssS'MCDONALD REBECCA'
p158
(dp159
g3
F-0.5623315472626922
sg4
F-0.32207620401266873
sg5
F-0.7935146564639368
sg6
I00
sg7
F-0.4599969278645385
sg8
F-0.07573779480955599
sg9
F0.3072033908508732
sg10
F0.1968553764342727
sg11
F-0.44277269669008285
sg12
F-0.0855453314017121
sg13
F-0.41927462149177547
sg14
F-0.24132711204938306
sg15
F0.8250597801705909
sg16
F-0.3130011853862872
sg17
F-0.5662828596666104
sg18
F-0.18794929702710692
sg19
F-0.5134250369696522
sg20
F-0.34129161508446737
sg21
F0.041503955885334246
sg22
F-0.9695259859642622
sg23
F-0.5797562226089557
sg24
F-0.22268310672129152
sg25
F0.9882008853547747
sg26
F-0.2659872603102931
sg27
F-0.6015179229822268
ssS'CUMBERLAND MICHAEL S'
p160
(dp161
g3
F0.011690601621536241
sg4
F-0.32207620401266873
sg5
F-0.31299562475874626
sg6
I00
sg7
F-0.04502669642503157
sg8
F0.010062446994749629
sg9
F0.3072033908508732
sg10
F0.1968553764342727
sg11
F-0.045240690355402145
sg12
F-0.0855453314017121
sg13
F0.03916436411676937
sg14
F-0.24057778567305002
sg15
F-0.1620850867361246
sg16
F-0.3130011853862872
sg17
F-0.2586004603060639
sg18
F-0.42582635276222985
sg19
F-0.021632031015087923
sg20
F-0.4700076461650592
sg21
F-0.32440181273718727
sg22
F0.046424348078087437
sg23
F0.10453222383913402
sg24
F-0.13058194479177318
sg25
F-0.23174611762872585
sg26
F-0.4198765771433258
sg27
F-0.06493237544206641
ssS'GAHN ROBERT S'
p162
(dp163
g3
F0.011690601621536241
sg4
F-0.18769692466022253
sg5
F0.28348109665976273
sg6
I00
sg7
F-0.4599969278645385
sg8
F0.010062446994749629
sg9
F0.3052803195915959
sg10
F0.1968553764342727
sg11
F-0.045240690355402145
sg12
F-0.0855453314017121
sg13
F0.03916436411676937
sg14
F-0.16088014693133806
sg15
F-0.1620850867361246
sg16
F-0.3130011853862872
sg17
F-0.08358124439903547
sg18
F-0.40808017592089174
sg19
F-0.021632031015087923
sg20
F-0.4700076461650592
sg21
F-0.3105794058054389
sg22
F0.08548562436788383
sg23
F0.38335913304339336
sg24
F-0.12002290626941632
sg25
F-0.23174611762872585
sg26
F-0.4029621863459663
sg27
F0.20912632985035132
ssS'MCCLELLAN GEORGE'
p164
(dp165
g3
F-0.12399361165035964
sg4
F-0.32207620401266873
sg5
F4.126149470369867
sg6
I00
sg7
F-0.4599969278645385
sg8
F-0.1138712356114696
sg9
F0.07650866205081003
sg10
F0.1968553764342727
sg11
F0.4367754299045121
sg12
F-0.0855453314017121
sg13
F-0.3941073261259521
sg14
F-0.1871118248461669
sg15
F-0.1409203888612979
sg16
F-0.3130011853862872
sg17
F0.2857607077933646
sg18
F-0.30717518380834347
sg19
F-0.527365626114821
sg20
F-0.7779105381250855
sg21
F-0.2069108499016526
sg22
F0.4778291935721195
sg23
F0.5812092729339746
sg24
F-0.07235362762879465
sg25
F1.1503484804798088
sg26
F-0.3168980789703512
sg27
F0.44150890081118216
ssS'HERMANN ROBERT J'
p166
(dp167
g3
F0.011690601621536241
sg4
F-0.32207620401266873
sg5
F0.24642710938675685
sg6
I00
sg7
F-0.23364952889753474
sg8
F0.010062446994749629
sg9
F-0.2095528016612683
sg10
F0.1968553764342727
sg11
F-0.045240690355402145
sg12
F-0.0855453314017121
sg13
F0.03916436411676937
sg14
F0.19633098821220507
sg15
F-0.1620850867361246
sg16
F-0.3130011853862872
sg17
F0.09641769280225902
sg18
F-0.35203155744863973
sg19
F-0.021632031015087923
sg20
F-0.4700076461650592
sg21
F-0.1869880398231399
sg22
F0.4737082261762344
sg23
F0.33804215254158576
sg24
F-0.07478190212817655
sg25
F-0.23174611762872585
sg26
F-0.3817751526024978
sg27
F0.21204156120315001
ssS'SCRIMSHAW MATTHEW'
p168
(dp169
g3
F0.011690601621536241
sg4
F-0.32207620401266873
sg5
F-0.7935146564639368
sg6
I00
sg7
F-0.4599969278645385
sg8
F0.010062446994749629
sg9
F0.3072033908508732
sg10
F0.1968553764342727
sg11
F-0.045240690355402145
sg12
F-0.0855453314017121
sg13
F0.03916436411676937
sg14
F-0.24132711204938306
sg15
F-0.1620850867361246
sg16
F-0.3130011853862872
sg17
F-0.5662828596666104
sg18
F-0.33737096108550224
sg19
F-0.021632031015087923
sg20
F-0.4700076461650592
sg21
F-0.4291860379427196
sg22
F-0.9695259859642622
sg23
F-0.5797562226089557
sg24
F-0.22268310672129152
sg25
F-0.23174611762872585
sg26
F-0.2655288239702179
sg27
F-0.6015179229822268
ssS'GATHMANN WILLIAM D'
p170
(dp171
g3
F0.011690601621536241
sg4
F-0.32207620401266873
sg5
F-0.7935146564639368
sg6
I00
sg7
F-0.4599969278645385
sg8
F0.010062446994749629
sg9
F0.3072033908508732
sg10
F-0.06467941394564947
sg11
F-0.045240690355402145
sg12
F-0.0855453314017121
sg13
F0.03916436411676937
sg14
F-0.24132711204938306
sg15
F-0.1620850867361246
sg16
F-0.3130011853862872
sg17
F-0.5662828596666104
sg18
F-0.14721969885747338
sg19
F-0.021632031015087923
sg20
F-0.4700076461650592
sg21
F-0.2961457491613971
sg22
F-0.9695259859642622
sg23
F-0.5797562226089557
sg24
F-0.22268310672129152
sg25
F-0.23174611762872585
sg26
F-0.0634980016165532
sg27
F-0.6015179229822268
ssS'HAEDICKE MARK E'
p172
(dp173
g3
F1.0440480638342677
sg4
F3.6428990899268454
sg5
F0.8445382492804536
sg6
I00
sg7
F1.0238551346995102
sg8
F2.3266689757110015
sg9
F-1.4174408727331127
sg10
F-0.994278334843953
sg11
F0.8806595311765507
sg12
F-0.0855453314017121
sg13
F0.9285738636556513
sg14
F-0.18627632068181238
sg15
F0.33541778284320306
sg16
F-0.3130011853862872
sg17
F0.5224394765322465
sg18
F-0.33038951854941345
sg19
F0.3230103117404729
sg20
F-0.5995288761100365
sg21
F-0.16504906313383888
sg22
F1.086149916683097
sg23
F-0.07281302068814388
sg24
F0.21722249514506844
sg25
F-0.5243580227637311
sg26
F-0.296173952134104
sg27
F0.33684595850799776
ssS'BOWEN JR RAYMOND M'
p174
(dp175
g3
F-0.06520475910941151
sg4
F-0.32207620401266873
sg5
F0.623848744117606
sg6
I01
sg7
F1.0101943146805217
sg8
F1.5640001596727293
sg9
F0.3056660411781496
sg10
F0.1968553764342727
sg11
F0.5823882038667682
sg12
F-0.0855453314017121
sg13
F-0.4094873399606219
sg14
F-0.23962352431300737
sg15
F1.297124570955993
sg16
F-0.3130011853862872
sg17
F0.711782491523352
sg18
F-0.41875222414795793
sg19
F-0.3182567889372897
sg20
F2.3754483505016006
sg21
F-0.3021715727884422
sg22
F0.5612815306503904
sg23
F0.28051009917242054
sg24
F0.0816308024201233
sg25
F1.2164277782474104
sg26
F-0.4198765771433258
sg27
F0.8777310283992826
ssS'GILLIS JOHN'
p176
(dp177
g3
F0.011690601621536241
sg4
F-0.32207620401266873
sg5
F-0.7935146564639368
sg6
I00
sg7
F-0.4599969278645385
sg8
F0.010062446994749629
sg9
F0.3072033908508732
sg10
F0.1968553764342727
sg11
F-0.045240690355402145
sg12
F-0.0855453314017121
sg13
F0.03916436411676937
sg14
F-0.24132711204938306
sg15
F-0.1620850867361246
sg16
F-0.3130011853862872
sg17
F-0.5662828596666104
sg18
F-0.4454377968378695
sg19
F-0.021632031015087923
sg20
F-0.4700076461650592
sg21
F-0.3909700810746944
sg22
F-0.9695259859642622
sg23
F-0.5797562226089557
sg24
F-0.22268310672129152
sg25
F-0.23174611762872585
sg26
F-0.41788453306453255
sg27
F-0.6015179229822268
ssS'FITZGERALD JAY L'
p178
(dp179
g3
F-0.5406724963265535
sg4
F-0.32207620401266873
sg5
F-0.280178222217477
sg6
I00
sg7
F0.379625167759624
sg8
F-1.0862739760602667
sg9
F0.3072033908508732
sg10
F0.1968553764342727
sg11
F-0.43924980699744764
sg12
F-0.0855453314017121
sg13
F-0.4171773468779569
sg14
F0.05862834149160093
sg15
F-1.0488513321503883
sg16
F-0.3130011853862872
sg17
F-0.2349325834321757
sg18
F-0.19919510094230333
sg19
F-0.415840912953471
sg20
F2.060112461638932
sg21
F0.052947880836847365
sg22
F0.12476668558546077
sg23
F-0.15893362441663064
sg24
F-0.06139960407496853
sg25
F0.8436698481130853
sg26
F-0.28485305366693564
sg27
F-0.06502667538715448
ssS'MORAN MICHAEL P'
p180
(dp181
g3
F-0.6768151022108544
sg4
F-0.32207620401266873
sg5
F-0.7935146564639368
sg6
I00
sg7
F-0.4599969278645385
sg8
F-1.1053406964612236
sg9
F0.3072033908508732
sg10
F0.1968553764342727
sg11
F-1.139130559267646
sg12
F-0.0855453314017121
sg13
F-0.41508007226413823
sg14
F-0.24132711204938306
sg15
F-1.0825930548979203
sg16
F-0.3130011853862872
sg17
F-0.5662828596666104
sg18
F-0.423709486121926
sg19
F-0.527365626114821
sg20
F-0.7779105381250855
sg21
F-0.3477522572287423
sg22
F-0.9695259859642622
sg23
F-0.5797562226089557
sg24
F-0.22268310672129152
sg25
F-1.7168538484977434
sg26
F-0.4077777999927319
sg27
F-0.6015179229822268
ssS'REDMOND BRIAN L'
p182
(dp183
g3
F-0.16163910494412467
sg4
F-0.32207620401266873
sg5
F-0.4776202751214044
sg6
I00
sg7
F-0.4599969278645385
sg8
F2.784270265333965
sg9
F0.3072033908508732
sg10
F0.1968553764342727
sg11
F-0.03998897516545524
sg12
F-0.0855453314017121
sg13
F-0.27386358160035185
sg14
F-0.24132711204938306
sg15
F2.7730499781988587
sg16
F-0.3130011853862872
sg17
F-0.5662828596666104
sg18
F0.8060941386856865
sg19
F0.15572324199844786
sg20
F0.48057929887434303
sg21
F-0.23705055026602737
sg22
F-0.4374266758075759
sg23
F-0.5797562226089557
sg24
F-0.2099696043909205
sg25
F0.2455470021969747
sg26
F1.106017197964061
sg27
F-0.6015179229822268
ssS'BAZELIDES PHILIP J'
p184
(dp185
g3
F0.011690601621536241
sg4
F0.9362138632303468
sg5
F-0.7935146564639368
sg6
I00
sg7
F-0.31852980351016114
sg8
F0.010062446994749629
sg9
F0.3072033908508732
sg10
F0.1968553764342727
sg11
F-0.045240690355402145
sg12
F-0.0855453314017121
sg13
F0.03916436411676937
sg14
F-0.24040858294291031
sg15
F-0.1620850867361246
sg16
F-0.3130011853862872
sg17
F-0.5662828596666104
sg18
F-0.20265800035123913
sg19
F-0.021632031015087923
sg20
F-0.4700076461650592
sg21
F-0.4291860379427196
sg22
F-0.525461528630071
sg23
F-0.5797562226089557
sg24
F-0.12463380079694887
sg25
F-0.23174611762872585
sg26
F-0.09481737258911387
sg27
F-0.6015179229822268
ssS'BELDEN TIMOTHY N'
p186
(dp187
g3
F3.097532369255807
sg4
F3.618063861388663
sg5
F-0.4202865954523193
sg6
I01
sg7
F-0.4599969278645385
sg8
F3.241871554956928
sg9
F-4.0011295574023
sg10
F0.1968553764342727
sg11
F5.1950251080904915
sg12
F-0.0855453314017121
sg13
F-0.09000250712225366
sg14
F-0.01989433667684267
sg15
F-0.1814851124495067
sg16
F-0.3130011853862872
sg17
F4.403970337134836
sg18
F-0.2810620839542689
sg19
F0.9782180015634042
sg20
F0.4886451807778645
sg21
F-0.34978454914109164
sg22
F0.20631788303842996
sg23
F1.0435909092420164
sg24
F0.4044630689445814
sg25
F0.4858506961459461
sg26
F-0.22619210044387678
sg27
F6.887720371052454
ssS'DURAN WILLIAM D'
p188
(dp189
g3
F-0.5571746303731354
sg4
F-0.32207620401266873
sg5
F-0.23899517774399687
sg6
I00
sg7
F1.2077578694122215
sg8
F0.9157316660401978
sg9
F0.3072033908508732
sg10
F0.1968553764342727
sg11
F-0.5848625809597037
sg12
F-0.0855453314017121
sg13
F-0.419973713029715
sg14
F-0.239679224590631
sg15
F2.620635666472786
sg16
F-0.3130011853862872
sg17
F0.1437534465500354
sg18
F-0.19604024644027035
sg19
F-0.48554385867931477
sg20
F0.6411009617569232
sg21
F-0.33392531505593
sg22
F0.18814716413417387
sg23
F0.029754041111163615
sg24
F0.015933791382156396
sg25
F0.36168975381545115
sg26
F-0.1248457656944325
sg27
F0.4851663710579411
ssS'THORN TERENCE H'
p190
(dp191
g3
F-0.8861859279268627
sg4
F-0.291595435880784
sg5
F0.19885692955629314
sg6
I00
sg7
F-0.15820039590853346
sg8
F-1.1053406964612236
sg9
F0.3072033908508732
sg10
F0.1968553764342727
sg11
F-1.2025425737350801
sg12
F-0.0855453314017121
sg13
F-0.39970005842946843
sg14
F0.20703805289955587
sg15
F-1.0825930548979203
sg16
F-0.3130011853862872
sg17
F-0.5662828596666104
sg18
F0.31339418984851775
sg19
F-0.527365626114821
sg20
F-0.7779105381250855
sg21
F-0.2450955639979035
sg22
F0.25079136317482215
sg23
F-0.5797562226089557
sg24
F-0.11878403258341114
sg25
F-1.3418560934815689
sg26
F0.48490037397052993
sg27
F-0.6015179229822268
ssS'FASTOW ANDREW S'
p192
(dp193
g3
F0.2231405652580961
sg4
F-0.32207620401266873
sg5
F0.4090947586804402
sg6
I01
sg7
F2.159679963559873
sg8
F0.7591121770323385
sg9
F-2.250841267764899
sg10
F0.1968553764342727
sg11
F0.8055045510669993
sg12
F-0.0855453314017121
sg13
F-0.21838567455386432
sg14
F0.05027329984805568
sg15
F0.19506958284213066
sg16
F-0.3130011853862872
sg17
F0.6644467377755757
sg18
F-0.17142519735157105
sg19
F0.4026708211414371
sg20
F0.4828330917344114
sg21
F0.4750462940737736
sg22
F1.4519434666114432
sg23
F0.33254745022471016
sg24
F0.05364488751798961
sg25
F0.6909983238703308
sg26
F-0.4198765771433258
sg27
F0.29900017471395623
ssS'FOY JOE'
p194
(dp195
g3
F-0.9939654909186009
sg4
F0.011942366577630452
sg5
F-0.7935146564639368
sg6
I00
sg7
F-0.4599969278645385
sg8
F-1.1053406964612236
sg9
F0.3072033908508732
sg10
F0.1968553764342727
sg11
F-1.285917629794114
sg12
F-0.0855453314017121
sg13
F-0.41927462149177547
sg14
F-0.24132711204938306
sg15
F-1.0825930548979203
sg16
F-0.3130011853862872
sg17
F-0.5662828596666104
sg18
F-0.40409900418550626
sg19
F-0.527365626114821
sg20
F-0.7779105381250855
sg21
F-0.4291860379427196
sg22
F-0.9695259859642622
sg23
F-0.5797562226089557
sg24
F-0.20196434643422193
sg25
F-2.3922622706854453
sg26
F-0.3500881790859672
sg27
F-0.6015179229822268
ssS'CALGER CHRISTOPHER F'
p196
(dp197
g3
F0.3164070907177957
sg4
F-0.32207620401266873
sg5
F-0.023230433512964964
sg6
I01
sg7
F0.10633030028154408
sg8
F2.688936663329181
sg9
F-0.17725553962925947
sg10
F0.1968553764342727
sg11
F1.2810946595727548
sg12
F-0.0855453314017121
sg13
F-0.32769363002169616
sg14
F-0.24081635101306068
sg15
F1.3365248226410593
sg16
F-0.3130011853862872
sg17
F0.6171109840277993
sg18
F-0.4389616377487618
sg19
F-0.1788508974856022
sg20
F0.2075141145707539
sg21
F-0.36567905732341777
sg22
F0.35022206450273824
sg23
F0.7174108792702522
sg24
F-0.03581506137281507
sg25
F1.1497770108232914
sg26
F-0.4198765771433258
sg27
F0.9872010114118758
ssS'LEWIS RICHARD'
p198
(dp199
g3
F-0.5324214293032625
sg4
F-0.32207620401266873
sg5
F-0.7935146564639368
sg6
I00
sg7
F-0.4599969278645385
sg8
F-0.9146734924516554
sg9
F0.3072033908508732
sg10
F0.1968553764342727
sg11
F-0.4204610619700598
sg12
F-0.0855453314017121
sg13
F-0.4101864314985615
sg14
F-0.24132711204938306
sg15
F-0.7508467051952964
sg16
F-0.3130011853862872
sg17
F-0.5662828596666104
sg18
F-0.3227913447733725
sg19
F-0.527365626114821
sg20
F-0.7779105381250855
sg21
F-0.4291860379427196
sg22
F-0.9695259859642622
sg23
F-0.5797562226089557
sg24
F-0.22268310672129152
sg25
F0.8604545479904635
sg26
F-0.2470531892008734
sg27
F-0.6015179229822268
ssS'KAMINSKI WINCENTY J'
p200
(dp201
g3
F1.3524316938297676
sg4
F-0.32207620401266873
sg5
F1.0040230836487714
sg6
I00
sg7
F0.028107657163867133
sg8
F-0.32360516002199446
sg9
F0.3072033908508732
sg10
F0.1968553764342727
sg11
F-0.6036513259870916
sg12
F-0.0855453314017121
sg13
F9.616184405630275
sg14
F-0.23642023287533115
sg15
F-0.8015267748546641
sg16
F-0.3130011853862872
sg17
F-0.1875968296843993
sg18
F-0.30265697803172037
sg19
F1.8564751177090355
sg20
F-0.7103573737376067
sg21
F-0.36567905732341777
sg22
F0.5420503494695932
sg23
F0.04634640547328559
sg24
F-0.09879334427209743
sg25
F-1.9908852718654422
sg26
F-0.24714808714892975
sg27
F-0.1576456728536587
ssS'COX DAVID'
p202
(dp203
g3
F-0.9707593649155951
sg4
F-0.32207620401266873
sg5
F-0.19434974676386907
sg6
I00
sg7
F-0.4599969278645385
sg8
F-1.1053406964612236
sg9
F0.23107413034685237
sg10
F0.1968553764342727
sg11
F-1.2048911668635036
sg12
F-0.0855453314017121
sg13
F-0.40529279073298474
sg14
F-0.24080794342398543
sg15
F-1.0825930548979203
sg16
F-0.3130011853862872
sg17
F0.1910892002978118
sg18
F-0.37969289966406067
sg19
F-0.471603269534146
sg20
F-0.08990496242471759
sg21
F-0.23866459216914038
sg22
F0.7573681485929933
sg23
F0.655881709273614
sg24
F-0.0971322412768391
sg25
F0.508566861124582
sg26
F-0.39598932084359845
sg27
F0.1755381522266212
ssS'OVERDYKE JR JERE C'
p204
(dp205
g3
F0.011690601621536241
sg4
F-0.32207620401266873
sg5
F-0.3884799517049161
sg6
I00
sg7
F-0.255022759290659
sg8
F0.010062446994749629
sg9
F0.3072033908508732
sg10
F0.1968553764342727
sg11
F-0.045240690355402145
sg12
F-0.0855453314017121
sg13
F0.03916436411676937
sg14
F-0.24114214508972723
sg15
F-0.1620850867361246
sg16
F-0.3130011853862872
sg17
F-0.5662828596666104
sg18
F0.7126495740841976
sg19
F-0.021632031015087923
sg20
F-0.4700076461650592
sg21
F0.5993139148902835
sg22
F-0.447860965253957
sg23
F-0.5797562226089557
sg24
F-0.19420918866772352
sg25
F-0.23174611762872585
sg26
F0.6503320855520617
sg27
F-0.6015179229822268
ssS'PEREIRA PAULO V. FERRAZ'
p206
(dp207
g3
F0.011690601621536241
sg4
F-0.32207620401266873
sg5
F-0.19260780075741898
sg6
I00
sg7
F-0.4599969278645385
sg8
F0.010062446994749629
sg9
F0.12034066052282204
sg10
F0.1968553764342727
sg11
F-0.045240690355402145
sg12
F-0.0855453314017121
sg13
F0.03916436411676937
sg14
F-0.24132711204938306
sg15
F-0.1620850867361246
sg16
F3.085951477140716
sg17
F-0.5662828596666104
sg18
F-0.459170890993029
sg19
F-0.021632031015087923
sg20
F-0.4700076461650592
sg21
F-0.4291860379427196
sg22
F-0.9695259859642622
sg23
F-0.5797562226089557
sg24
F-0.2194979200692528
sg25
F-0.23174611762872585
sg26
F-0.4198765771433258
sg27
F-0.6015179229822268
ssS'STABLER FRANK'
p208
(dp209
g3
F0.011690601621536241
sg4
F-0.32207620401266873
sg5
F-0.4383727262106466
sg6
I00
sg7
F-0.4599969278645385
sg8
F0.010062446994749629
sg9
F0.3072033908508732
sg10
F0.1968553764342727
sg11
F-0.045240690355402145
sg12
F-0.0855453314017121
sg13
F0.03916436411676937
sg14
F0.1328852191529816
sg15
F-0.1620850867361246
sg16
F-0.3130011853862872
sg17
F-0.09292532218884654
sg18
F-0.37711099906747464
sg19
F-0.021632031015087923
sg20
F-0.4700076461650592
sg21
F-0.1713152545372764
sg22
F0.34644725836810747
sg23
F0.18509118181507944
sg24
F-0.09591320233700293
sg25
F-0.23174611762872585
sg26
F-0.4198765771433258
sg27
F0.035792516401469465
ssS'SKILLING JEFFREY K'
p210
(dp211
g3
F0.847053838653196
sg4
F-0.32207620401266873
sg5
F-0.16262912504147575
sg6
I01
sg7
F2.4372497789131096
sg8
F0.5725306988229754
sg9
F0.3072033908508732
sg10
F0.1968553764342727
sg11
F1.1096473611978406
sg12
F-0.0855453314017121
sg13
F-0.35286092538751945
sg14
F-0.21807802635900472
sg15
F-0.31632941572816514
sg16
F-0.3130011853862872
sg17
F4.735321560084345
sg18
F3.725119979382721
sg19
F-0.10914795175975843
sg20
F0.7987689061882576
sg21
F3.019447549057355
sg22
F5.1364179959244085
sg23
F0.5174189908806452
sg24
F0.7670839502768864
sg25
F-0.07546341838884654
sg26
F3.491869675715022
sg27
F0.9368609218554879
ssS'BLAKE JR. NORMAN P'
p212
(dp213
g3
F0.011690601621536241
sg4
F-0.32207620401266873
sg5
F-0.7660091139670276
sg6
I00
sg7
F-0.4599969278645385
sg8
F0.010062446994749629
sg9
F0.0972084386765821
sg10
F0.1968553764342727
sg11
F-0.045240690355402145
sg12
F-0.0855453314017121
sg13
F0.03916436411676937
sg14
F-0.24132711204938306
sg15
F-0.1620850867361246
sg16
F3.506716639334429
sg17
F-0.5662828596666104
sg18
F-0.459170890993029
sg19
F-0.021632031015087923
sg20
F-0.4700076461650592
sg21
F-0.4291860379427196
sg22
F-0.9695259859642622
sg23
F-0.5797562226089557
sg24
F-0.22253730993766982
sg25
F-0.23174611762872585
sg26
F-0.4198765771433258
sg27
F-0.6015179229822268
ssS'SHERRICK JEFFREY B'
p214
(dp215
g3
F-0.7072409118592399
sg4
F-0.32207620401266873
sg5
F-0.7935146564639368
sg6
I00
sg7
F-0.4599969278645385
sg8
F-0.3617386008239081
sg9
F0.3072033908508732
sg10
F0.1968553764342727
sg11
F-0.6036513259870916
sg12
F-0.0855453314017121
sg13
F-0.410885523036501
sg14
F-0.24132711204938306
sg15
F0.9267182781785921
sg16
F-0.3130011853862872
sg17
F-0.5662828596666104
sg18
F-0.16532266899285558
sg19
F-0.27643502150178345
sg20
F3.3088425815350995
sg21
F-0.22459677830426183
sg22
F-0.9695259859642622
sg23
F-0.5797562226089557
sg24
F-0.22268310672129152
sg25
F1.6275825899667493
sg26
F-0.13000723867223002
sg27
F-0.6015179229822268
ssS'PRENTICE JAMES'
p216
(dp217
g3
F0.011690601621536241
sg4
F0.7150491145507499
sg5
F-0.7935146564639368
sg6
I00
sg7
F-0.4599969278645385
sg8
F0.010062446994749629
sg9
F0.3072033908508732
sg10
F0.1968553764342727
sg11
F-0.045240690355402145
sg12
F-0.0855453314017121
sg13
F0.03916436411676937
sg14
F-0.24132711204938306
sg15
F-0.1620850867361246
sg16
F-0.3130011853862872
sg17
F-0.5662828596666104
sg18
F-0.28357406910087596
sg19
F-0.021632031015087923
sg20
F-0.4700076461650592
sg21
F-0.32396391001667363
sg22
F-0.9695259859642622
sg23
F-0.5797562226089557
sg24
F-0.15835150137075285
sg25
F-0.23174611762872585
sg26
F-0.239787704758032
sg27
F-0.6015179229822268
ssS'GRAY RODNEY'
p218
(dp219
g3
F0.011690601621536241
sg4
F-0.15009123562834284
sg5
F-0.7935146564639368
sg6
I00
sg7
F0.09172485711753321
sg8
F0.010062446994749629
sg9
F0.3072033908508732
sg10
F0.1968553764342727
sg11
F-0.045240690355402145
sg12
F-0.0855453314017121
sg13
F0.03916436411676937
sg14
F0.47419339956065976
sg15
F-0.1620850867361246
sg16
F-0.3130011853862872
sg17
F-0.5662828596666104
sg18
F-0.459170890993029
sg19
F-0.021632031015087923
sg20
F-0.4700076461650592
sg21
F-0.4291860379427196
sg22
F-0.9331790535325555
sg23
F-0.5797562226089557
sg24
F-0.0919723574530422
sg25
F-0.23174611762872585
sg26
F-0.4198765771433258
sg27
F-0.6015179229822268
ssS'PICKERING MARK R'
p220
(dp221
g3
F-0.5602687805068695
sg4
F-0.32207620401266873
sg5
F-0.11280086705450268
sg6
I00
sg7
F-0.4599969278645385
sg8
F-0.9718736536545258
sg9
F0.3072033908508732
sg10
F0.1968553764342727
sg11
F-0.43337832417638894
sg12
F-0.027488322845896498
sg13
F-0.38152367844304047
sg14
F-0.24132711204938306
sg15
F-0.8364062314660399
sg16
F-0.3130011853862872
sg17
F-0.2822683371799521
sg18
F-0.45455294345061026
sg19
F-0.527365626114821
sg20
F-0.7779105381250855
sg21
F-0.4291860379427196
sg22
F2.62965550750027
sg23
F-0.21172435300130923
sg24
F-0.06461043910567409
sg25
F1.0115539660355666
sg26
F-0.41402460474904973
sg27
F-0.46170555373901706
ssS'NOLES JAMES L'
p222
(dp223
g3
F0.011690601621536241
sg4
F1.1010720729739245
sg5
F-0.7935146564639368
sg6
I00
sg7
F-0.4599969278645385
sg8
F0.010062446994749629
sg9
F0.3072033908508732
sg10
F-0.1446252245014475
sg11
F-0.045240690355402145
sg12
F-0.0855453314017121
sg13
F0.03916436411676937
sg14
F-0.24132711204938306
sg15
F-0.1620850867361246
sg16
F-0.3130011853862872
sg17
F-0.5662828596666104
sg18
F-0.40004663414784863
sg19
F-0.021632031015087923
sg20
F-0.4700076461650592
sg21
F-0.19574155899234882
sg22
F-0.9695259859642622
sg23
F-0.5797562226089557
sg24
F-0.1344069729969539
sg25
F-0.23174611762872585
sg26
F-0.4198765771433258
sg27
F-0.6015179229822268
ssS'KEAN STEVEN J'
p224
(dp225
g3
F5.553771883751736
sg4
F-0.32207620401266873
sg5
F0.10870584734593873
sg6
I00
sg7
F-0.007302129930530941
sg8
F1.5640001596727293
sg9
F0.3072033908508732
sg10
F0.1968553764342727
sg11
F2.9849989742439926
sg12
F-0.0855453314017121
sg13
F4.29679689344834
sg14
F-0.24003339428042658
sg15
F-0.7359162986773956
sg16
F-0.3130011853862872
sg17
F0.38043221528891735
sg18
F0.5276058279049769
sg19
F4.867642373065486
sg20
F-0.4529172252359969
sg21
F1.652788936347104
sg22
F1.252158967258933
sg23
F0.393710040412296
sg24
F-0.023478191234067265
sg25
F-1.294080997439641
sg26
F-0.008981060930353545
sg27
F0.1534797515043365
ssS'FOWLER PEGGY'
p226
(dp227
g3
F-0.7567473139989856
sg4
F-0.32207620401266873
sg5
F-0.7935146564639368
sg6
I00
sg7
F-0.4599969278645385
sg8
F-1.1053406964612236
sg9
F0.3072033908508732
sg10
F0.1968553764342727
sg11
F-1.27652325728042
sg12
F-0.0855453314017121
sg13
F-0.4031955161191661
sg14
F-0.24132711204938306
sg15
F-1.0825930548979203
sg16
F-0.3130011853862872
sg17
F-0.5662828596666104
sg18
F-0.15693922925684434
sg19
F-0.527365626114821
sg20
F-0.7779105381250855
sg21
F-0.14690759496213374
sg22
F-0.9695259859642622
sg23
F-0.5797562226089557
sg24
F-0.22268310672129152
sg25
F-2.4613624815993607
sg26
F-0.1507122639943074
sg27
F-0.6015179229822268
ssS'WASAFF GEORGE'
p228
(dp229
g3
F-0.8170832416068008
sg4
F1.2056358463471293
sg5
F-0.7935146564639368
sg6
I00
sg7
F-0.15820039590853346
sg8
F-0.6858728476401738
sg9
F-0.7693566305675017
sg10
F0.1968553764342727
sg11
F-0.8925282807831801
sg12
F-0.0855453314017121
sg13
F-0.40739006534680333
sg14
F-0.23982951024535137
sg15
F0.6544308321450184
sg16
F-0.3130011853862872
sg17
F-0.2586004603060639
sg18
F-0.12940937940147562
sg19
F-0.42978150209863974
sg20
F0.5465001950981226
sg21
F-0.2335826025990827
sg22
F0.45905406611646693
sg23
F-0.04526508910733129
sg24
F-0.10476953049426414
sg25
F1.1511537296554741
sg26
F-0.0808734704527561
sg27
F-0.21991924010007435
ssS'WHITE JR THOMAS E'
p230
(dp231
g3
F0.011690601621536241
sg4
F-0.32207620401266873
sg5
F0.9560227936932583
sg6
I00
sg7
F-0.4599969278645385
sg8
F0.010062446994749629
sg9
F0.3072033908508732
sg10
F0.1968553764342727
sg11
F-0.045240690355402145
sg12
F-0.0855453314017121
sg13
F0.03916436411676937
sg14
F0.8994387455012526
sg15
F-0.1620850867361246
sg16
F-0.3130011853862872
sg17
F-0.14026107593662293
sg18
F1.9692882238738785
sg19
F-0.021632031015087923
sg20
F-0.4700076461650592
sg21
F6.548571586630094
sg22
F0.7752531470911347
sg23
F-0.18400798254630918
sg24
F-0.002180119567509408
sg25
F-0.23174611762872585
sg26
F-0.15630636594729116
sg27
F-0.1689043482287395
ssS'ALLEN PHILLIP K'
p232
(dp233
g3
F0.4731773641603241
sg4
F4.951719676918704
sg5
F-0.4952762957546823
sg6
I00
sg7
F-5.1468250287919346e-05
sg8
F-0.20920483761625364
sg9
F-5.379061790293756
sg10
F-0.25827994754438555
sg11
F0.3639690429233841
sg12
F-0.0855453314017121
sg13
F1.1061431142922937
sg14
F-0.24116736785695303
sg15
F-0.5710955128202426
sg16
F-0.3130011853862872
sg17
F3.386252578272718
sg18
F-0.18182768624053022
sg19
F0.37877266832114787
sg20
F-0.6098271713964648
sg21
F-0.36567905732341777
sg22
F0.1401406412837095
sg23
F1.0040120016104666
sg24
F0.28851096672519955
sg25
F-0.41848439995691117
sg26
F-0.06842070566722817
sg27
F5.709392886479476
ssS'SHARP VICTORIA T'
p234
(dp235
g3
F0.5938492193759545
sg4
F0.022443217241177364
sg5
F1.7083714244296702
sg6
I00
sg7
F0.1770321738228774
sg8
F-0.6477394068382601
sg9
F0.3072033908508732
sg10
F0.1968553764342727
sg11
F1.6204663666299484
sg12
F-0.0855453314017121
sg13
F-0.33328636232521247
sg14
F-0.23880378437816896
sg15
F-0.8408921429717228
sg16
F-0.3130011853862872
sg17
F0.0017461853067062437
sg18
F-0.37993295339942423
sg19
F-0.44372209124380846
sg20
F-0.5274967440282603
sg21
F-0.32182025274041925
sg22
F0.3939427812614821
sg23
F0.06768120506040685
sg24
F-0.04297221294159696
sg25
F0.9201360606958046
sg26
F-0.3627604080768503
sg27
F0.1366142646167223
ssS'JAEDICKE ROBERT'
p236
(dp237
g3
F0.011690601621536241
sg4
F-0.32207620401266873
sg5
F-0.7935146564639368
sg6
I00
sg7
F-0.4599969278645385
sg8
F0.010062446994749629
sg9
F0.2610644450908606
sg10
F0.0376174207565927
sg11
F-0.045240690355402145
sg12
F-0.0855453314017121
sg13
F0.03916436411676937
sg14
F-0.24132711204938306
sg15
F-0.1620850867361246
sg16
F3.3377257484390124
sg17
F-0.5662828596666104
sg18
F-0.3899369562948106
sg19
F-0.021632031015087923
sg20
F-0.4700076461650592
sg21
F-0.4069668841387976
sg22
F-0.9695259859642622
sg23
F-0.5797562226089557
sg24
F-0.21313621021752502
sg25
F-0.23174611762872585
sg26
F-0.3321416969006457
sg27
F-0.6015179229822268
ssS'WINOKUR JR. HERBERT S'
p238
(dp239
g3
F0.011690601621536241
sg4
F-0.32207620401266873
sg5
F-0.7631273761291967
sg6
I00
sg7
F-0.4599969278645385
sg8
F0.010062446994749629
sg9
F0.2610644450908606
sg10
F0.1968553764342727
sg11
F-0.045240690355402145
sg12
F-0.0855453314017121
sg13
F0.03916436411676937
sg14
F-0.24132711204938306
sg15
F-0.1620850867361246
sg16
F3.3319852950534115
sg17
F-0.5662828596666104
sg18
F-0.459170890993029
sg19
F-0.021632031015087923
sg20
F-0.4700076461650592
sg21
F-0.4291860379427196
sg22
F-0.9695259859642622
sg23
F-0.5797562226089557
sg24
F-0.2129946311672841
sg25
F-0.23174611762872585
sg26
F-0.4198765771433258
sg27
F-0.6015179229822268
ssS'BROWN MICHAEL'
p240
(dp241
g3
F-0.2570420674009265
sg4
F-0.32207620401266873
sg5
F0.26644873570780647
sg6
I00
sg7
F-0.4599969278645385
sg8
F-0.857473331248785
sg9
F0.3072033908508732
sg10
F0.1968553764342727
sg11
F-0.3946265375574014
sg12
F-0.0855453314017121
sg13
F-0.39970005842946843
sg14
F-0.24132711204938306
sg15
F-0.8063014785910781
sg16
F-0.3130011853862872
sg17
F-0.5662828596666104
sg18
F-0.459170890993029
sg19
F-0.5134250369696522
sg20
F-0.6394703917951334
sg21
F-0.4291860379427196
sg22
F-0.9695259859642622
sg23
F-0.5797562226089557
sg24
F-0.21706462988693162
sg25
F-0.2987850619064162
sg26
F-0.4198765771433258
sg27
F-0.6015179229822268
ssS'BADUM JAMES P'
p242
(dp243
g3
F0.011690601621536241
sg4
F0.00684263598761598
sg5
F-0.7185464616678262
sg6
I00
sg7
F-0.4599969278645385
sg8
F0.010062446994749629
sg9
F0.3072033908508732
sg10
F0.1968553764342727
sg11
F-0.045240690355402145
sg12
F-0.0855453314017121
sg13
F0.03916436411676937
sg14
F-0.24132711204938306
sg15
F-0.1620850867361246
sg16
F-0.3130011853862872
sg17
F-0.5662828596666104
sg18
F-0.4178282497837862
sg19
F-0.021632031015087923
sg20
F-0.4700076461650592
sg21
F-0.4291860379427196
sg22
F-0.9695259859642622
sg23
F-0.5797562226089557
sg24
F-0.20188329755763473
sg25
F-0.23174611762872585
sg26
F-0.36748620396549825
sg27
F-0.6015179229822268
ssS'HUGHES JAMES A'
p244
(dp245
g3
F-0.6525775928299372
sg4
F-0.32207620401266873
sg5
F-0.7935146564639368
sg6
I00
sg7
F-0.4599969278645385
sg8
F-0.4380054824277353
sg9
F0.3072033908508732
sg10
F0.1968553764342727
sg11
F-0.5966055466018211
sg12
F-0.0855453314017121
sg13
F-0.4045936991950452
sg14
F-0.24132711204938306
sg15
F0.4547905851704285
sg16
F-0.3130011853862872
sg17
F-0.5662828596666104
sg18
F-0.27982910254397453
sg19
F-0.4576626803889772
sg20
F0.05680210886433145
sg21
F-0.2460489724526927
sg22
F-0.9695259859642622
sg23
F-0.5797562226089557
sg24
F-0.22268310672129152
sg25
F1.048869865005137
sg26
F-0.2664617500505749
sg27
F-0.6015179229822268
ssS'REYNOLDS LAWRENCE'
p246
(dp247
g3
F0.011690601621536241
sg4
F-0.22768065022668915
sg5
F-0.6126748543869163
sg6
I00
sg7
F-0.22421838727390958
sg8
F0.010062446994749629
sg9
F-0.061908175229227876
sg10
F-0.3096956093270524
sg11
F-0.045240690355402145
sg12
F-0.0855453314017121
sg13
F0.03916436411676937
sg14
F-0.02898083856993603
sg15
F-0.1620850867361246
sg16
F-0.3130011853862872
sg17
F-0.47161135217105765
sg18
F0.21783692787667794
sg19
F-0.021632031015087923
sg20
F-0.4700076461650592
sg21
F-0.327655596242776
sg22
F-0.5497422685266261
sg23
F-0.14851122333462294
sg24
F-0.1777157992786254
sg25
F-0.23174611762872585
sg26
F0.42560358417473376
sg27
F-0.20193906762214617
ssS'DIMICHELE RICHARD G'
p248
(dp249
g3
F0.011690601621536241
sg4
F-0.32207620401266873
sg5
F-0.023359466550479782
sg6
I00
sg7
F0.5885377810755293
sg8
F0.010062446994749629
sg9
F0.3072033908508732
sg10
F0.1968553764342727
sg11
F-0.045240690355402145
sg12
F-0.0855453314017121
sg13
F0.03916436411676937
sg14
F0.1524517808283936
sg15
F-0.1620850867361246
sg16
F-0.3130011853862872
sg17
F0.38043221528891735
sg18
F0.8746398231286072
sg19
F-0.021632031015087923
sg20
F-0.4700076461650592
sg21
F-0.36567905732341777
sg22
F0.4743950540755486
sg23
F0.13859058504284694
sg24
F0.04726904255979656
sg25
F-0.23174611762872585
sg26
F1.2447502761337461
sg27
F0.560157076281621
ssS'BHATNAGAR SANJAY'
p250
(dp251
g3
F-0.7536531638652515
sg4
F-0.32207620401266873
sg5
F2.1713204575265928
sg6
I00
sg7
F-0.4599969278645385
sg8
F-1.1053406964612236
sg9
F0.3072033908508732
sg10
F-9.209029076493875
sg11
F-0.7445669136925006
sg12
F-0.0855453314017121
sg13
F-0.4080891568847429
sg14
F-0.24132711204938306
sg15
F-1.0825930548979203
sg16
F-0.3130011853862872
sg17
F-0.5662828596666104
sg18
F2.019346242849996
sg19
F-0.5134250369696522
sg20
F-0.5821848140034291
sg21
F0.883257295257034
sg22
F-0.9695259859642622
sg23
F-0.5797562226089557
sg24
F-0.20696760415896
sg25
F1.338886296854337
sg26
F2.720958980809503
sg27
F-0.6015179229822268
ssS'CARTER REBECCA C'
p252
(dp253
g3
F-0.8624641102349011
sg4
F-0.32207620401266873
sg5
F-0.7935146564639368
sg6
I00
sg7
F-0.34682322838103663
sg8
F-0.5524058048334761
sg9
F0.012298014015515646
sg10
F-0.9129349081393954
sg11
F-1.0581040963370358
sg12
F-0.0855453314017121
sg13
F-0.4178764384158964
sg14
F-0.24075959978680264
sg15
F1.8529368241373492
sg16
F-0.3130011853862872
sg17
F-0.2822683371799521
sg18
F-0.459170890993029
sg19
F-0.42978150209863974
sg20
F1.870910928321331
sg21
F-0.27433224747486695
sg22
F0.46901581796811986
sg23
F0.48890388134979085
sg24
F-0.16824504996130088
sg25
F0.21069753935702393
sg26
F-0.4198765771433258
sg27
F-0.2517122443693281
ssS'BUCHANAN HAROLD G'
p254
(dp255
g3
F-0.46228735960528927
sg4
F-0.32207620401266873
sg5
F-0.7806113527124547
sg6
I00
sg7
F-5.1468250287919346e-05
sg8
F-1.1053406964612236
sg9
F0.3072033908508732
sg10
F0.1968553764342727
sg11
F-1.2612574019456673
sg12
F-0.0855453314017121
sg13
F-0.3409763692425474
sg14
F-0.2400502094585771
sg15
F-1.0825930548979203
sg16
F-0.3130011853862872
sg17
F-0.09292532218884654
sg18
F-0.2964883827799055
sg19
F-0.527365626114821
sg20
F-0.7779105381250855
sg21
F-0.33392531505593
sg22
F0.3932339748693898
sg23
F0.22675526470251922
sg24
F-0.10246208835660156
sg25
F-2.4534746340494107
sg26
F-0.25213602083841863
sg27
F0.013912167911841022
ssS'YEAP SOON'
p256
(dp257
g3
F0.011690601621536241
sg4
F-0.32207620401266873
sg5
F0.3913742215284049
sg6
I00
sg7
F-0.4599969278645385
sg8
F0.010062446994749629
sg9
F0.3072033908508732
sg10
F0.1968553764342727
sg11
F-0.045240690355402145
sg12
F-0.0855453314017121
sg13
F0.03916436411676937
sg14
F-0.24132711204938306
sg15
F-0.1620850867361246
sg16
F-0.3130011853862872
sg17
F-0.5662828596666104
sg18
F-0.4282608857016354
sg19
F-0.021632031015087923
sg20
F-0.4700076461650592
sg21
F-0.4291860379427196
sg22
F-0.9695259859642622
sg23
F-0.5797562226089557
sg24
F-0.21640244574615095
sg25
F-0.23174611762872585
sg26
F-0.38070668705457417
sg27
F-0.6015179229822268
ssS'MURRAY JULIA H'
p258
(dp259
g3
F0.10703626500178742
sg4
F-0.32207620401266873
sg5
F0.444772393553288
sg6
I00
sg7
F-0.27137409539203533
sg8
F-0.8956067720506986
sg9
F0.3072033908508732
sg10
F0.1968553764342727
sg11
F-0.8244190800588991
sg12
F-0.0855453314017121
sg13
F-0.3969036922777103
sg14
F-0.24098029900002838
sg15
F-0.9241054739633455
sg16
F-0.3130011853862872
sg17
F-0.1875968296843993
sg18
F-0.3633641142501633
sg19
F-0.4994844478244835
sg20
F-0.5256418270349505
sg21
F-0.3299232167747799
sg22
F0.29030319856656867
sg23
F0.2580503659092673
sg24
F-0.13009884333048408
sg25
F-1.7554181502657162
sg26
F-0.3384964048912632
sg27
F-0.06894827188306935
ssS'GARLAND C KEVIN'
p260
(dp261
g3
F-0.9155803541973367
sg4
F-0.32207620401266873
sg5
F0.24745937368687543
sg6
I00
sg7
F0.10633030028154408
sg8
F-0.9146734924516554
sg9
F0.3072033908508732
sg10
F0.1968553764342727
sg11
F-1.0792414344928472
sg12
F-0.0855453314017121
sg13
F-0.39760278381564984
sg14
F-0.17741472179648238
sg15
F0.42851950451307463
sg16
F-0.3130011853862872
sg17
F0.2384249540455882
sg18
F-0.3154668996053914
sg19
F-0.1509697191952647
sg20
F2.705117688858027
sg21
F-0.2982148269179322
sg22
F0.30492988551036354
sg23
F0.34332661800538794
sg24
F-0.04411692857969634
sg25
F1.1914176332638102
sg26
F-0.29058655603183947
sg27
F0.5172041599619319
ssS'DODSON KEITH'
p262
(dp263
g3
F-0.9325981799328743
sg4
F-0.32207620401266873
sg5
F-0.18783357836937065
sg6
I00
sg7
F-0.4599969278645385
sg8
F-0.9146734924516554
sg9
F0.3072033908508732
sg10
F0.1968553764342727
sg11
F-1.1543964146023986
sg12
F-0.0855453314017121
sg13
F-0.4185755299538359
sg14
F-0.24051367780635113
sg15
F0.7118531094026361
sg16
F-0.3130011853862872
sg17
F-0.5000128044197235
sg18
F-0.459170890993029
sg19
F-0.48554385867931477
sg20
F0.4383850332023505
sg21
F-0.4291860379427196
sg22
F0.24480222389280246
sg23
F-0.20756022471521998
sg24
F-0.1862121381921983
sg25
F0.2963725791280463
sg26
F-0.4198765771433258
sg27
F-0.5048260342772846
ssS'YEAGER F SCOTT'
p264
(dp265
g3
F0.2231405652580961
sg4
F-0.32207620401266873
sg5
F0.3666428893380644
sg6
I01
sg7
F-0.4599969278645385
sg8
F0.7591121770323385
sg9
F0.3072033908508732
sg10
F0.1968553764342727
sg11
F0.8055045510669993
sg12
F-0.0855453314017121
sg13
F-0.21838567455386432
sg14
F-0.08583926158868885
sg15
F0.19506958284213066
sg16
F-0.3130011853862872
sg17
F-0.5662828596666104
sg18
F1.446627740798815
sg19
F0.4026708211414371
sg20
F0.4828330917344114
sg21
F1.3729202181185278
sg22
F-0.09916118808374197
sg23
F-0.5797562226089557
sg24
F-0.1816115030161325
sg25
F0.6909983238703308
sg26
F1.2684843139049198
sg27
F-0.6015179229822268
ssS'HIRKO JOSEPH'
p266
(dp267
g3
F0.2231405652580961
sg4
F-0.303222821626017
sg5
F0.8834417100911719
sg6
I01
sg7
F-0.4599969278645385
sg8
F0.7591121770323385
sg9
F0.3072033908508732
sg10
F0.1968553764342727
sg11
F0.8055045510669993
sg12
F-0.0855453314017121
sg13
F-0.21838567455386432
sg14
F-0.23832560274951323
sg15
F0.19506958284213066
sg16
F-0.3130011853862872
sg17
F-0.5662828596666104
sg18
F4.4743685783693525
sg19
F0.4026708211414371
sg20
F0.4828330917344114
sg21
F-0.4291860379427196
sg22
F-0.9695259859642622
sg23
F-0.5797562226089557
sg24
F-0.2122991611306336
sg25
F0.6909983238703308
sg26
F5.832021374399537
sg27
F-0.6015179229822268
ssS'DIETRICH JANET R'
p268
(dp269
g3
F0.3029991068049479
sg4
F-0.32207620401266873
sg5
F-0.7187830222366034
sg6
I00
sg7
F0.379625167759624
sg8
F4.710009025830602
sg9
F0.3072033908508732
sg10
F0.1968553764342727
sg11
F0.9452458422081965
sg12
F-0.0855453314017121
sg13
F-0.3843200445947986
sg14
F-0.24083001334530799
sg15
F2.6625807436889333
sg16
F-0.3130011853862872
sg17
F0.0017461853067062437
sg18
F-0.1600919991239009
sg19
F-0.33219737808245847
sg20
F0.48343301732558885
sg21
F-0.27041833443662816
sg22
F0.40467927498356143
sg23
F0.14390083388625044
sg24
F-0.06190037441933923
sg25
F0.699137342706094
sg26
F-0.1049009399947937
sg27
F0.1308473302122108
ssS'DERRICK JR. JAMES V'
p270
(dp271
g3
F0.10136365642327488
sg4
F-0.32207620401266873
sg5
F0.30593284518734143
sg6
I00
sg7
F0.2703506794689937
sg8
F0.11492940920001206
sg9
F-2.0624928633833757
sg10
F-6.258108840542837
sg11
F0.35692326353811366
sg12
F-0.0855453314017121
sg13
F0.20711139650204946
sg14
F-0.23346391436674088
sg15
F-0.1558327800386141
sg16
F-0.3130011853862872
sg17
F0.1910892002978118
sg18
F0.9570840896725092
sg19
F-0.24855384321144597
sg20
F-0.6530250375854147
sg21
F0.47150275905576217
sg22
F1.735889109434317
sg23
F1.8902435935551936
sg24
F-0.15987524304915102
sg25
F0.27284355970623614
sg26
F1.3748352453668522
sg27
F-0.10551508009776188
ssS'PAI LOU L'
p272
(dp273
g3
F0.011690601621536241
sg4
F-0.32207620401266873
sg5
F-0.10432769759102947
sg6
I00
sg7
F-0.4599969278645385
sg8
F0.010062446994749629
sg9
F0.3072033908508732
sg10
F0.1968553764342727
sg11
F-0.045240690355402145
sg12
F-0.0855453314017121
sg13
F0.03916436411676937
sg14
F1.681338223809152
sg15
F-0.1620850867361246
sg16
F-0.3130011853862872
sg17
F0.38043221528891735
sg18
F3.3601898739559855
sg19
F-0.021632031015087923
sg20
F-0.4700076461650592
sg21
F3.830797640167294
sg22
F0.46940044159173583
sg23
F-0.035105210905484144
sg24
F0.1333600484145139
sg25
F-0.23174611762872585
sg26
F2.7022388873003047
sg27
F0.5641893300107511
ssS'BAY FRANKLIN R'
p274
(dp275
g3
F0.011690601621536241
sg4
F0.156572563851194
sg5
F1.9837494319925488
sg6
I00
sg7
F-0.4599969278645385
sg8
F0.010062446994749629
sg9
F-0.06493673562891511
sg10
F-0.10210446859577076
sg11
F-0.045240690355402145
sg12
F-0.0855453314017121
sg13
F0.03916436411676937
sg14
F-0.2412545965936089
sg15
F-0.1620850867361246
sg16
F-0.3130011853862872
sg17
F-0.1875968296843993
sg18
F-0.44906618419262706
sg19
F-0.021632031015087923
sg20
F-0.4700076461650592
sg21
F-0.35571714836848767
sg22
F0.34737584968798024
sg23
F0.2423590036999422
sg24
F-0.12833172703673615
sg25
F-0.23174611762872585
sg26
F-0.4198765771433258
sg27
F-0.09202908251917866
ssS'HAYSLETT RODERICK J'
p276
(dp277
g3
F0.3427073668545357
sg4
F-0.32207620401266873
sg5
F-0.7935146564639368
sg6
I00
sg7
F-0.4599969278645385
sg8
F-0.4380054824277353
sg9
F0.3072033908508732
sg10
F0.1968553764342727
sg11
F-0.6177428847576325
sg12
F-0.0855453314017121
sg13
F0.31337331026885906
sg14
F-0.24132711204938306
sg15
F-0.6653115006475832
sg16
F-0.3130011853862872
sg17
F-0.5662828596666104
sg18
F-0.40358121292866656
sg19
F0.002376761401591583
sg20
F-0.5746214259836477
sg21
F-0.25449711872359176
sg22
F-0.9695259859642622
sg23
F-0.5797562226089557
sg24
F-0.22268310672129152
sg25
F-1.6002707241040068
sg26
F-0.4198765771433258
sg27
F-0.6015179229822268
ssS'FUGH JOHN L'
p278
(dp279
g3
F0.011690601621536241
sg4
F-0.22910306156963373
sg5
F-0.7935146564639368
sg6
I00
sg7
F-0.4599969278645385
sg8
F0.010062446994749629
sg9
F0.3072033908508732
sg10
F0.1968553764342727
sg11
F-0.045240690355402145
sg12
F-0.0855453314017121
sg13
F0.03916436411676937
sg14
F-0.24132711204938306
sg15
F-0.1620850867361246
sg16
F-0.3130011853862872
sg17
F-0.5662828596666104
sg18
F-0.4308875257719465
sg19
F-0.021632031015087923
sg20
F-0.4700076461650592
sg21
F-0.4291860379427196
sg22
F-0.9695259859642622
sg23
F-0.5797562226089557
sg24
F-0.2169160972762521
sg25
F-0.23174611762872585
sg26
F-0.3840352275024609
sg27
F-0.6015179229822268
ssS'FALLON JAMES B'
p280
(dp281
g3
F-0.1183210030718471
sg4
F-0.32207620401266873
sg5
F1.2693795252979991
sg6
I00
sg7
F0.10488620387613459
sg8
F-0.30453843962103766
sg9
F0.3072033908508732
sg10
F0.1968553764342727
sg11
F0.5953054660730973
sg12
F-0.0855453314017121
sg13
F-0.37593094613952416
sg14
F0.1806087966414583
sg15
F-0.3267784653532072
sg16
F-0.3130011853862872
sg17
F1.800504827722209
sg18
F-0.08515546526936972
sg19
F-0.011563827743577169
sg20
F2.0222721549754117
sg21
F0.27233613598283646
sg22
F0.7040703036062125
sg23
F0.5770693912402965
sg24
F0.19639316184774624
sg25
F1.464764157988786
sg26
F-0.22880921109273716
sg27
F1.9041146832477303
ssS'KOENIG MARK E'
p282
(dp283
g3
F0.20089215239172217
sg4
F-0.32207620401266873
sg5
F1.9380502312060501
sg6
I01
sg7
F-0.007302129930530941
sg8
F-0.0948045152105128
sg9
F0.3072033908508732
sg10
F0.1968553764342727
sg11
F1.3785612744023295
sg12
F-0.0855453314017121
sg13
F-0.3857182276706777
sg14
F-0.08320348241359306
sg15
F-0.37751328149456764
sg16
F-0.3130011853862872
sg17
F0.09641769280225902
sg18
F-0.15127752101737704
sg19
F-0.3182567889372897
sg20
F0.6178384781523001
sg21
F0.19986096811729603
sg22
F0.7335104946824157
sg23
F0.17039612993091666
sg24
F-0.04172855155824063
sg25
F1.6519523194777241
sg26
F-0.28337451518715395
sg27
F0.08793112554423797
ssS'SAVAGE FRANK'
p284
(dp285
g3
F0.011690601621536241
sg4
F-0.32207620401266873
sg5
F-0.7935146564639368
sg6
I00
sg7
F-0.4599969278645385
sg8
F0.010062446994749629
sg9
F0.08336675494857831
sg10
F0.1968553764342727
sg11
F-0.045240690355402145
sg12
F-0.0855453314017121
sg13
F0.03916436411676937
sg14
F-0.24132711204938306
sg15
F-0.1620850867361246
sg16
F3.8843780462818738
sg17
F-0.5662828596666104
sg18
F-0.459170890993029
sg19
F-0.021632031015087923
sg20
F-0.4700076461650592
sg21
F-0.4291860379427196
sg22
F-0.9695259859642622
sg23
F-0.5797562226089557
sg24
F-0.22225563374351093
sg25
F-0.23174611762872585
sg26
F-0.4198765771433258
sg27
F-0.6015179229822268
ssS'IZZO LAWRENCE L'
p286
(dp287
g3
F-0.767576839467055
sg4
F-0.32207620401266873
sg5
F-0.189360469313296
sg6
I00
sg7
F0.011560153316719375
sg8
F-0.5714725252344329
sg9
F0.3072033908508732
sg10
F0.1968553764342727
sg11
F-0.7750986243620059
sg12
F-0.0855453314017121
sg13
F-0.41508007226413823
sg14
F1.391562258741046
sg15
F0.7002760373748906
sg16
F-0.3130011853862872
sg17
F-0.5662828596666104
sg18
F0.47410094517358853
sg19
F-0.4576626803889772
sg20
F0.7157857775401868
sg21
F1.412528997908877
sg22
F-0.5009774876753189
sg23
F-0.5797562226089557
sg24
F0.002976572458053397
sg25
F1.3203274899397823
sg26
F0.020102823261547657
sg27
F-0.6015179229822268
ssS'TILNEY ELIZABETH A'
p288
(dp289
g3
F-0.7861417402694597
sg4
F-0.32207620401266873
sg5
F-0.7935146564639368
sg6
I00
sg7
F-0.04502669642503157
sg8
F-0.9146734924516554
sg9
F-0.7539923616294175
sg10
F0.1968553764342727
sg11
F-0.843207825086287
sg12
F-0.0855453314017121
sg13
F-0.41508007226413823
sg14
F-0.08152511744444316
sg15
F-0.3960223485568378
sg16
F-0.3130011853862872
sg17
F-0.2822683371799521
sg18
F-0.27186772121242353
sg19
F-0.3740191455179647
sg20
F2.508221356338514
sg21
F-0.13853150863258504
sg22
F0.3895031257203152
sg23
F0.6980481286596624
sg24
F-0.1771551827173654
sg25
F1.0695828634314322
sg26
F-0.299730085091248
sg27
F-0.23124616970547834
ssS'MARTIN AMANDA K'
p290
(dp291
g3
F-0.2384771665985218
sg4
F-0.16507801147034934
sg5
F-0.6169329446249053
sg6
I00
sg7
F7.304373755178036
sg8
F-0.952806933253569
sg9
F0.3072033908508732
sg10
F0.1968553764342727
sg11
F-0.7281267617935362
sg12
F-0.0855453314017121
sg13
F-0.26757175775889597
sg14
F2.7207232703929654
sg15
F-0.9165890996196558
sg16
F-0.3130011853862872
sg17
F-0.5662828596666104
sg18
F-0.12718379102932376
sg19
F-0.527365626114821
sg20
F-0.7779105381250855
sg21
F-0.4291860379427196
sg22
F0.9507733904166736
sg23
F-0.5797562226089557
sg24
F0.7356561369504575
sg25
F-1.1708437731167105
sg26
F0.000825331312266618
sg27
F-0.6015179229822268
ssS'BUY RICHARD B'
p292
(dp293
g3
F0.7934219030018047
sg4
F0.8716907853869565
sg5
F-0.7935146564639368
sg6
I00
sg7
F0.7017114805590313
sg8
F1.8690676860880382
sg9
F-0.9752046142968829
sg10
F0.1968553764342727
sg11
F1.4513676613834574
sg12
F-0.0855453314017121
sg13
F0.30778057796534275
sg14
F0.17965348433278122
sg15
F0.31588307019535466
sg16
F-0.3130011853862872
sg17
F0.2857607077933646
sg18
F0.09317238879845294
sg19
F0.4624162031921604
sg20
F-0.39519518583022273
sg21
F0.025173056729515787
sg22
F0.8466997324893936
sg23
F0.07017247796466597
sg24
F0.04584994626635908
sg25
F0.3599741576417665
sg26
F0.0968423436083362
sg27
F0.22967296946812274
ssS'GRAMM WENDY L'
p294
(dp295
g3
F0.011690601621536241
sg4
F-0.32207620401266873
sg5
F-0.7935146564639368
sg6
I00
sg7
F-0.4599969278645385
sg8
F0.010062446994749629
sg9
F0.3072033908508732
sg10
F0.1968553764342727
sg11
F-0.045240690355402145
sg12
F-0.0855453314017121
sg13
F0.03916436411676937
sg14
F-0.24132711204938306
sg15
F-0.1620850867361246
sg16
F3.691619664175898
sg17
F-0.5662828596666104
sg18
F-0.459170890993029
sg19
F-0.021632031015087923
sg20
F-0.4700076461650592
sg21
F-0.4291860379427196
sg22
F-0.9695259859642622
sg23
F-0.5797562226089557
sg24
F-0.20908467833051764
sg25
F-0.23174611762872585
sg26
F-0.4198765771433258
sg27
F-0.6015179229822268
ssS'CAUSEY RICHARD A'
p296
(dp297
g3
F-0.0476712416849182
sg4
F-0.32207620401266873
sg5
F-0.13385475767567084
sg6
I01
sg7
F0.06814700305847032
sg8
F0.0005290867942712266
sg9
F-0.12650269929324556
sg10
F0.1968553764342727
sg11
F0.5729938313530742
sg12
F-0.0855453314017121
sg13
F-0.3941073261259521
sg14
F0.08225471774173183
sg15
F-0.11442675229855025
sg16
F-0.3130011853862872
sg17
F0.38043221528891735
sg18
F-0.05794873383534881
sg19
F-0.36007855637279595
sg20
F0.6121415433919842
sg21
F0.8316427245389084
sg22
F1.311781123542599
sg23
F0.3305562474312657
sg24
F-0.009658160851611924
sg25
F1.1302544917345163
sg26
F-0.4198765771433258
sg27
F0.13374782275416802
ssS'TAYLOR MITCHELL S'
p298
(dp299
g3
F-0.7484962469756947
sg4
F0.09591609255244891
sg5
F-0.7935146564639368
sg6
I00
sg7
F-0.4599969278645385
sg8
F-1.1053406964612236
sg9
F0.3072033908508732
sg10
F0.1968553764342727
sg11
F-0.9359772536590146
sg12
F-0.0855453314017121
sg13
F-0.4080891568847429
sg14
F-0.24132711204938306
sg15
F-1.0825930548979203
sg16
F-0.3130011853862872
sg17
F0.0017461853067062437
sg18
F0.14137203587134486
sg19
F-0.527365626114821
sg20
F-0.7779105381250855
sg21
F-0.1450793888976648
sg22
F0.4877250099454383
sg23
F0.35437646654813515
sg24
F-0.09812739836911231
sg25
F-0.07611267751022112
sg26
F0.22657759256605697
sg27
F0.08911134177728368
ssS'DONAHUE JR JEFFREY M'
p300
(dp301
g3
F-0.5772866062424071
sg4
F-0.32207620401266873
sg5
F1.2767774194488488
sg6
I00
sg7
F-0.4599969278645385
sg8
F2.479202738918656
sg9
F-0.24646395826927842
sg10
F0.1968553764342727
sg11
F-0.38170927535107224
sg12
F-0.0855453314017121
sg13
F-0.41298279765031964
sg14
F-0.24039071681612537
sg15
F5.78152656179304
sg16
F-0.3130011853862872
sg17
F0.1910892002978118
sg18
F-0.2858273991538681
sg19
F-0.3740191455179647
sg20
F2.060112461638932
sg21
F-0.27041833443662816
sg22
F0.5612815306503904
sg23
F0.9742345610645838
sg24
F-0.12285277738232382
sg25
F1.370520710833384
sg26
F-0.2642358140270003
sg27
F0.2750740482068157
ssS'GLISAN JR BEN F'
p302
(dp303
g3
F-0.5731610727307617
sg4
F-0.32207620401266873
sg5
F1.9157060102097336
sg6
I01
sg7
F-0.3528244524189818
sg8
F-0.1138712356114696
sg9
F0.3072033908508732
sg10
F0.1968553764342727
sg11
F-0.26193102580147454
sg12
F-0.0855453314017121
sg13
F-0.4171773468779569
sg14
F-0.03081369298834394
sg15
F0.7985949514799368
sg16
F-0.3130011853862872
sg17
F0.0017461853067062437
sg18
F-0.33432595081107386
sg19
F-0.44372209124380846
sg20
F1.3506067116979277
sg21
F-0.23073497512655955
sg22
F0.5413580269470845
sg23
F0.22249565396298454
sg24
F-0.07765189870459839
sg25
F1.8473865332081298
sg26
F-0.34169692455269274
sg27
F0.0645955412378981
ss.